libosmscout.so.0 libosmscout0 #MINVER#
 _ZN8osmscout10EleFeature10InitializeERNS_10TypeConfigE@Base 0.1
 _ZN8osmscout10EleFeature10NAME_LABELE@Base 0.1
 _ZN8osmscout10EleFeature13AllocateValueEPv@Base 0.1
 _ZN8osmscout10EleFeature16NAME_LABEL_INDEXE@Base 0.1
 _ZN8osmscout10EleFeature4NAMEE@Base 0.1
 _ZN8osmscout10EleFeatureC1Ev@Base 0.1
 _ZN8osmscout10EleFeatureC2Ev@Base 0.1
 _ZN8osmscout10EleFeatureD0Ev@Base 0.1
 _ZN8osmscout10EleFeatureD1Ev@Base 0.1
 _ZN8osmscout10EleFeatureD2Ev@Base 0.1
 _ZN8osmscout10FileWriter10WriteCoordERKNS_8GeoCoordE@Base 0.1
 _ZN8osmscout10FileWriter11WriteNumberEi@Base 0.1
 _ZN8osmscout10FileWriter11WriteNumberEj@Base 0.1
 _ZN8osmscout10FileWriter11WriteNumberEl@Base 0.1
 _ZN8osmscout10FileWriter11WriteNumberEm@Base 0.1
 _ZN8osmscout10FileWriter11WriteNumberEs@Base 0.1
 _ZN8osmscout10FileWriter11WriteNumberEt@Base 0.1
 _ZN8osmscout10FileWriter11WriteTypeIdEth@Base 0.1
 _ZN8osmscout10FileWriter15WriteFileOffsetEm@Base 0.1
 _ZN8osmscout10FileWriter15WriteFileOffsetEmm@Base 0.1
 _ZN8osmscout10FileWriter17WriteInvalidCoordEv@Base 0.1
 _ZN8osmscout10FileWriter26FlushCurrentBlockWithZerosEm@Base 0.1
 _ZN8osmscout10FileWriter4OpenERKSs@Base 0.1
 _ZN8osmscout10FileWriter5CloseEv@Base 0.1
 _ZN8osmscout10FileWriter5FlushEv@Base 0.1
 _ZN8osmscout10FileWriter5WriteEPKcm@Base 0.1
 _ZN8osmscout10FileWriter5WriteERKNS_13ObjectFileRefE@Base 0.1
 _ZN8osmscout10FileWriter5WriteERKSs@Base 0.1
 _ZN8osmscout10FileWriter5WriteERKSt6vectorINS_8GeoCoordESaIS2_EE@Base 0.1
 _ZN8osmscout10FileWriter5WriteERKSt6vectorINS_8GeoCoordESaIS2_EEm@Base 0.1
 _ZN8osmscout10FileWriter5WriteEa@Base 0.1
 _ZN8osmscout10FileWriter5WriteEb@Base 0.1
 _ZN8osmscout10FileWriter5WriteEh@Base 0.1
 _ZN8osmscout10FileWriter5WriteEi@Base 0.1
 _ZN8osmscout10FileWriter5WriteEj@Base 0.1
 _ZN8osmscout10FileWriter5WriteEjm@Base 0.1
 _ZN8osmscout10FileWriter5WriteEl@Base 0.1
 _ZN8osmscout10FileWriter5WriteEm@Base 0.1
 _ZN8osmscout10FileWriter5WriteEmm@Base 0.1
 _ZN8osmscout10FileWriter5WriteEs@Base 0.1
 _ZN8osmscout10FileWriter5WriteEt@Base 0.1
 _ZN8osmscout10FileWriter5WriteEtm@Base 0.1
 _ZN8osmscout10FileWriter6GetPosERm@Base 0.1
 _ZN8osmscout10FileWriter6SetPosEm@Base 0.1
 _ZN8osmscout10FileWriterC1Ev@Base 0.1
 _ZN8osmscout10FileWriterC2Ev@Base 0.1
 _ZN8osmscout10FileWriterD0Ev@Base 0.1
 _ZN8osmscout10FileWriterD1Ev@Base 0.1
 _ZN8osmscout10FileWriterD2Ev@Base 0.1
 _ZN8osmscout10GroundTile5Coord8CELL_MAXE@Base 0.1
 _ZN8osmscout10LatToTileYEdRKNS_13MagnificationE@Base 0.1
 _ZN8osmscout10LonToTileXEdRKNS_13MagnificationE@Base 0.1
 _ZN8osmscout10NoOpLogger15NoOpDestination5PrintEPKc@Base 0.1
 _ZN8osmscout10NoOpLogger15NoOpDestination5PrintERKSs@Base 0.1
 _ZN8osmscout10NoOpLogger15NoOpDestination5PrintEb@Base 0.1
 _ZN8osmscout10NoOpLogger15NoOpDestination5PrintEi@Base 0.1
 _ZN8osmscout10NoOpLogger15NoOpDestination5PrintEj@Base 0.1
 _ZN8osmscout10NoOpLogger15NoOpDestination5PrintEl@Base 0.1
 _ZN8osmscout10NoOpLogger15NoOpDestination5PrintEm@Base 0.1
 _ZN8osmscout10NoOpLogger15NoOpDestination5PrintEs@Base 0.1
 _ZN8osmscout10NoOpLogger15NoOpDestination5PrintEt@Base 0.1
 _ZN8osmscout10NoOpLogger15NoOpDestination5PrintEx@Base 0.1
 _ZN8osmscout10NoOpLogger15NoOpDestination5PrintEy@Base 0.1
 _ZN8osmscout10NoOpLogger15NoOpDestination7PrintLnEv@Base 0.1
 _ZN8osmscout10NoOpLogger15NoOpDestinationD0Ev@Base 0.1
 _ZN8osmscout10NoOpLogger15NoOpDestinationD1Ev@Base 0.1
 _ZN8osmscout10NoOpLogger15NoOpDestinationD2Ev@Base 0.1
 _ZN8osmscout10NoOpLogger3LogENS_6Logger5LevelE@Base 0.1
 _ZN8osmscout10NoOpLoggerD0Ev@Base 0.1
 _ZN8osmscout10NoOpLoggerD1Ev@Base 0.1
 _ZN8osmscout10NoOpLoggerD2Ev@Base 0.1
 _ZN8osmscout10NodeUseMap11SetNodeUsedEm@Base 0.1
 _ZN8osmscout10NodeUseMap5ClearEv@Base 0.1
 _ZN8osmscout10NodeUseMapC1Ev@Base 0.1
 _ZN8osmscout10NodeUseMapC2Ev@Base 0.1
 _ZN8osmscout10NodeUseMapD0Ev@Base 0.1
 _ZN8osmscout10NodeUseMapD1Ev@Base 0.1
 _ZN8osmscout10NodeUseMapD2Ev@Base 0.1
 _ZN8osmscout10POIServiceC1ERKSt10shared_ptrINS_8DatabaseEE@Base 0.1
 _ZN8osmscout10POIServiceC2ERKSt10shared_ptrINS_8DatabaseEE@Base 0.1
 _ZN8osmscout10POIServiceD0Ev@Base 0.1
 _ZN8osmscout10POIServiceD1Ev@Base 0.1
 _ZN8osmscout10POIServiceD2Ev@Base 0.1
 _ZN8osmscout10ProjectionD0Ev@Base 0.1
 _ZN8osmscout10ProjectionD1Ev@Base 0.1
 _ZN8osmscout10ProjectionD2Ev@Base 0.1
 _ZN8osmscout10RefFeature10InitializeERNS_10TypeConfigE@Base 0.1
 _ZN8osmscout10RefFeature10NAME_LABELE@Base 0.1
 _ZN8osmscout10RefFeature13AllocateValueEPv@Base 0.1
 _ZN8osmscout10RefFeature16NAME_LABEL_INDEXE@Base 0.1
 _ZN8osmscout10RefFeature4NAMEE@Base 0.1
 _ZN8osmscout10RefFeatureC1Ev@Base 0.1
 _ZN8osmscout10RefFeatureC2Ev@Base 0.1
 _ZN8osmscout10RefFeatureD0Ev@Base 0.1
 _ZN8osmscout10RefFeatureD1Ev@Base 0.1
 _ZN8osmscout10RefFeatureD2Ev@Base 0.1
 _ZN8osmscout10RemoveFileERKSs@Base 0.1
 _ZN8osmscout10RenameFileERKSsS1_@Base 0.1
 _ZN8osmscout10TileXToLonEiRKNS_13MagnificationE@Base 0.1
 _ZN8osmscout10TileYToLatEiRKNS_13MagnificationE@Base 0.1
 _ZN8osmscout10TypeConfig11RegisterTagERKSs@Base 0.1
 _ZN8osmscout10TypeConfig12RegisterTypeERKSt10shared_ptrINS_8TypeInfoEE@Base 0.1
 _ZN8osmscout10TypeConfig15LoadFromOSTFileERKSs@Base 0.1
 _ZN8osmscout10TypeConfig15RegisterFeatureERKNS_3RefINS_7FeatureEEE@Base 0.1
 _ZN8osmscout10TypeConfig15RegisterNameTagERKSsj@Base 0.1
 _ZN8osmscout10TypeConfig16LoadFromDataFileERKSs@Base 0.1
 _ZN8osmscout10TypeConfig18RegisterNameAltTagERKSsj@Base 0.1
 _ZN8osmscout10TypeConfig21RegisterMaxSpeedAliasERKSsh@Base 0.1
 _ZN8osmscout10TypeConfig29RegisterSurfaceToGradeMappingERKSsm@Base 0.1
 _ZN8osmscout10TypeConfigC1Ev@Base 0.1
 _ZN8osmscout10TypeConfigC2Ev@Base 0.1
 _ZN8osmscout10TypeConfigD0Ev@Base 0.1
 _ZN8osmscout10TypeConfigD1Ev@Base 0.1
 _ZN8osmscout10TypeConfigD2Ev@Base 0.1
 _ZN8osmscout10WaterIndex14DumpStatisticsEv@Base 0.1
 _ZN8osmscout10WaterIndex4LoadERKSs@Base 0.1
 _ZN8osmscout10WaterIndexC1Ev@Base 0.1
 _ZN8osmscout10WaterIndexC2Ev@Base 0.1
 _ZN8osmscout11AdminRegionD1Ev@Base 0.1
 _ZN8osmscout11AdminRegionD2Ev@Base 0.1
 _ZN8osmscout11CoordBufferD0Ev@Base 0.1
 _ZN8osmscout11CoordBufferD1Ev@Base 0.1
 _ZN8osmscout11CoordBufferD2Ev@Base 0.1
 _ZN8osmscout11FileScanner10FreeBufferEv@Base 0.1
 _ZN8osmscout11FileScanner10ReadNumberERi@Base 0.1
 _ZN8osmscout11FileScanner10ReadNumberERj@Base 0.1
 _ZN8osmscout11FileScanner10ReadNumberERl@Base 0.1
 _ZN8osmscout11FileScanner10ReadNumberERm@Base 0.1
 _ZN8osmscout11FileScanner10ReadNumberERs@Base 0.1
 _ZN8osmscout11FileScanner10ReadNumberERt@Base 0.1
 _ZN8osmscout11FileScanner10ReadTypeIdERth@Base 0.1
 _ZN8osmscout11FileScanner14ReadFileOffsetERm@Base 0.1
 _ZN8osmscout11FileScanner14ReadFileOffsetERmm@Base 0.1
 _ZN8osmscout11FileScanner20ReadConditionalCoordERNS_8GeoCoordERb@Base 0.1
 _ZN8osmscout11FileScanner4OpenERKSsNS0_4ModeEb@Base 0.1
 _ZN8osmscout11FileScanner4ReadEPcm@Base 0.1
 _ZN8osmscout11FileScanner4ReadERNS_13ObjectFileRefE@Base 0.1
 _ZN8osmscout11FileScanner4ReadERSs@Base 0.1
 _ZN8osmscout11FileScanner4ReadERSt6vectorINS_8GeoCoordESaIS2_EE@Base 0.1
 _ZN8osmscout11FileScanner4ReadERSt6vectorINS_8GeoCoordESaIS2_EEm@Base 0.1
 _ZN8osmscout11FileScanner4ReadERa@Base 0.1
 _ZN8osmscout11FileScanner4ReadERb@Base 0.1
 _ZN8osmscout11FileScanner4ReadERh@Base 0.1
 _ZN8osmscout11FileScanner4ReadERi@Base 0.1
 _ZN8osmscout11FileScanner4ReadERj@Base 0.1
 _ZN8osmscout11FileScanner4ReadERjm@Base 0.1
 _ZN8osmscout11FileScanner4ReadERl@Base 0.1
 _ZN8osmscout11FileScanner4ReadERm@Base 0.1
 _ZN8osmscout11FileScanner4ReadERmm@Base 0.1
 _ZN8osmscout11FileScanner4ReadERs@Base 0.1
 _ZN8osmscout11FileScanner4ReadERt@Base 0.1
 _ZN8osmscout11FileScanner4ReadERtm@Base 0.1
 _ZN8osmscout11FileScanner5CloseEv@Base 0.1
 _ZN8osmscout11FileScanner6SetPosEm@Base 0.1
 _ZN8osmscout11FileScanner7ReadBoxERNS_6GeoBoxE@Base 0.1
 _ZN8osmscout11FileScanner9GotoBeginEv@Base 0.1
 _ZN8osmscout11FileScanner9ReadCoordERNS_8GeoCoordE@Base 0.1
 _ZN8osmscout11FileScannerC1Ev@Base 0.1
 _ZN8osmscout11FileScannerC2Ev@Base 0.1
 _ZN8osmscout11FileScannerD0Ev@Base 0.1
 _ZN8osmscout11FileScannerD1Ev@Base 0.1
 _ZN8osmscout11FileScannerD2Ev@Base 0.1
 _ZN8osmscout11GetFileSizeERKSsRm@Base 0.1
 _ZN8osmscout11NameFeature10InitializeERNS_10TypeConfigE@Base 0.1
 _ZN8osmscout11NameFeature10NAME_LABELE@Base 0.1
 _ZN8osmscout11NameFeature13AllocateValueEPv@Base 0.1
 _ZN8osmscout11NameFeature16NAME_LABEL_INDEXE@Base 0.1
 _ZN8osmscout11NameFeature4NAMEE@Base 0.1
 _ZN8osmscout11NameFeatureC1Ev@Base 0.1
 _ZN8osmscout11NameFeatureC2Ev@Base 0.1
 _ZN8osmscout11NameFeatureD0Ev@Base 0.1
 _ZN8osmscout11NameFeatureD1Ev@Base 0.1
 _ZN8osmscout11NameFeatureD2Ev@Base 0.1
 _ZN8osmscout11TransBuffer12TransformWayERKNS_10ProjectionENS_12TransPolygon14OptimizeMethodERKSt6vectorINS_8GeoCoordESaIS7_EERmSC_d@Base 0.1
 _ZN8osmscout11TransBuffer13TransformAreaERKNS_10ProjectionENS_12TransPolygon14OptimizeMethodERKSt6vectorINS_8GeoCoordESaIS7_EERmSC_d@Base 0.1
 _ZN8osmscout11TransBuffer5ResetEv@Base 0.1
 _ZN8osmscout11TransBufferC1EPNS_11CoordBufferE@Base 0.1
 _ZN8osmscout11TransBufferC2EPNS_11CoordBufferE@Base 0.1
 _ZN8osmscout11TransBufferD0Ev@Base 0.1
 _ZN8osmscout11TransBufferD1Ev@Base 0.1
 _ZN8osmscout11TransBufferD2Ev@Base 0.1
 _ZN8osmscout11TypeInfoSet3SetERKSt10shared_ptrINS_8TypeInfoEE@Base 0.1
 _ZN8osmscout11TypeInfoSet3SetERKSt6vectorISt10shared_ptrINS_8TypeInfoEESaIS4_EE@Base 0.1
 _ZN8osmscout11TypeInfoSet5AdaptERKNS_10TypeConfigE@Base 0.1
 _ZN8osmscout11TypeInfoSet6RemoveERKS0_@Base 0.1
 _ZN8osmscout11TypeInfoSet6RemoveERKSt10shared_ptrINS_8TypeInfoEE@Base 0.1
 _ZN8osmscout11TypeInfoSetC1ERKNS_10TypeConfigE@Base 0.1
 _ZN8osmscout11TypeInfoSetC1ERKS0_@Base 0.1
 _ZN8osmscout11TypeInfoSetC1ERKSt6vectorISt10shared_ptrINS_8TypeInfoEESaIS4_EE@Base 0.1
 _ZN8osmscout11TypeInfoSetC1Ev@Base 0.1
 _ZN8osmscout11TypeInfoSetC2ERKNS_10TypeConfigE@Base 0.1
 _ZN8osmscout11TypeInfoSetC2ERKS0_@Base 0.1
 _ZN8osmscout11TypeInfoSetC2ERKSt6vectorISt10shared_ptrINS_8TypeInfoEESaIS4_EE@Base 0.1
 _ZN8osmscout11TypeInfoSetC2Ev@Base 0.1
 _ZN8osmscout11_pd_LOG_C_2E@Base 0.1
 _ZN8osmscout12AreaWayIndex14DumpStatisticsEv@Base 0.1
 _ZN8osmscout12AreaWayIndex4LoadERKSt10shared_ptrINS_10TypeConfigEERKSs@Base 0.1
 _ZN8osmscout12AreaWayIndex5CloseEv@Base 0.1
 _ZN8osmscout12AreaWayIndex8TypeDataC1Ev@Base 0.1
 _ZN8osmscout12AreaWayIndex8TypeDataC2Ev@Base 0.1
 _ZN8osmscout12AreaWayIndexC1Ev@Base 0.1
 _ZN8osmscout12AreaWayIndexC2Ev@Base 0.1
 _ZN8osmscout12DummyBreaker5BreakEv@Base 0.1
 _ZN8osmscout12DummyBreakerC1Ev@Base 0.1
 _ZN8osmscout12DummyBreakerC2Ev@Base 0.1
 _ZN8osmscout12DummyBreakerD0Ev@Base 0.1
 _ZN8osmscout12DummyBreakerD1Ev@Base 0.1
 _ZN8osmscout12DummyBreakerD2Ev@Base 0.1
 _ZN8osmscout12FeatureValue4ReadERNS_11FileScannerE@Base 0.1
 _ZN8osmscout12FeatureValue5WriteERNS_10FileWriterE@Base 0.1
 _ZN8osmscout12FeatureValueC1Ev@Base 0.1
 _ZN8osmscout12FeatureValueC2Ev@Base 0.1
 _ZN8osmscout12FeatureValueD0Ev@Base 0.1
 _ZN8osmscout12FeatureValueD1Ev@Base 0.1
 _ZN8osmscout12FeatureValueD2Ev@Base 0.1
 _ZN8osmscout12GradeFeature10InitializeERNS_10TypeConfigE@Base 0.1
 _ZN8osmscout12GradeFeature13AllocateValueEPv@Base 0.1
 _ZN8osmscout12GradeFeature4NAMEE@Base 0.1
 _ZN8osmscout12GradeFeatureD0Ev@Base 0.1
 _ZN8osmscout12GradeFeatureD1Ev@Base 0.1
 _ZN8osmscout12GradeFeatureD2Ev@Base 0.1
 _ZN8osmscout12Intersection4ReadERKNS_10TypeConfigERNS_11FileScannerE@Base 0.1
 _ZN8osmscout12Intersection4ReadERNS_11FileScannerE@Base 0.1
 _ZN8osmscout12IntersectionC1Ev@Base 0.1
 _ZN8osmscout12IntersectionC2Ev@Base 0.1
 _ZN8osmscout12IntersectionD0Ev@Base 0.1
 _ZN8osmscout12IntersectionD1Ev@Base 0.1
 _ZN8osmscout12IntersectionD2Ev@Base 0.1
 _ZN8osmscout12LayerFeature10InitializeERNS_10TypeConfigE@Base 0.1
 _ZN8osmscout12LayerFeature13AllocateValueEPv@Base 0.1
 _ZN8osmscout12LayerFeature4NAMEE@Base 0.1
 _ZN8osmscout12LayerFeatureD0Ev@Base 0.1
 _ZN8osmscout12LayerFeatureD1Ev@Base 0.1
 _ZN8osmscout12LayerFeatureD2Ev@Base 0.1
 _ZN8osmscout12NodeDataFileC1Em@Base 0.1
 _ZN8osmscout12NodeDataFileC2Em@Base 0.1
 _ZN8osmscout12NodeDataFileD0Ev@Base 0.1
 _ZN8osmscout12NodeDataFileD1Ev@Base 0.1
 _ZN8osmscout12NodeDataFileD2Ev@Base 0.1
 _ZN8osmscout12NumericIndexImE27NumericIndexCacheValueSizerD0Ev@Base 0.1
 _ZN8osmscout12NumericIndexImE27NumericIndexCacheValueSizerD1Ev@Base 0.1
 _ZN8osmscout12NumericIndexImE27NumericIndexCacheValueSizerD2Ev@Base 0.1
 _ZN8osmscout12NumericIndexImE4OpenERKSsNS_11FileScanner4ModeEb@Base 0.1
 _ZN8osmscout12NumericIndexImEC1ERKSsm@Base 0.1
 _ZN8osmscout12NumericIndexImEC2ERKSsm@Base 0.1
 _ZN8osmscout12NumericIndexImED0Ev@Base 0.1
 _ZN8osmscout12NumericIndexImED1Ev@Base 0.1
 _ZN8osmscout12NumericIndexImED2Ev@Base 0.1
 _ZN8osmscout12StreamLogger17StreamDestination5PrintEPKc@Base 0.1
 _ZN8osmscout12StreamLogger17StreamDestination5PrintERKSs@Base 0.1
 _ZN8osmscout12StreamLogger17StreamDestination5PrintEb@Base 0.1
 _ZN8osmscout12StreamLogger17StreamDestination5PrintEi@Base 0.1
 _ZN8osmscout12StreamLogger17StreamDestination5PrintEj@Base 0.1
 _ZN8osmscout12StreamLogger17StreamDestination5PrintEl@Base 0.1
 _ZN8osmscout12StreamLogger17StreamDestination5PrintEm@Base 0.1
 _ZN8osmscout12StreamLogger17StreamDestination5PrintEs@Base 0.1
 _ZN8osmscout12StreamLogger17StreamDestination5PrintEt@Base 0.1
 _ZN8osmscout12StreamLogger17StreamDestination5PrintEx@Base 0.1
 _ZN8osmscout12StreamLogger17StreamDestination5PrintEy@Base 0.1
 _ZN8osmscout12StreamLogger17StreamDestination7PrintLnEv@Base 0.1
 _ZN8osmscout12StreamLogger17StreamDestinationC1ERSo@Base 0.1
 _ZN8osmscout12StreamLogger17StreamDestinationC2ERSo@Base 0.1
 _ZN8osmscout12StreamLogger17StreamDestinationD0Ev@Base 0.1
 _ZN8osmscout12StreamLogger17StreamDestinationD1Ev@Base 0.1
 _ZN8osmscout12StreamLogger17StreamDestinationD2Ev@Base 0.1
 _ZN8osmscout12StreamLogger3LogENS_6Logger5LevelE@Base 0.1
 _ZN8osmscout12StreamLoggerC1ERSoS1_@Base 0.1
 _ZN8osmscout12StreamLoggerC2ERSoS1_@Base 0.1
 _ZN8osmscout12StreamLoggerD0Ev@Base 0.1
 _ZN8osmscout12StreamLoggerD1Ev@Base 0.1
 _ZN8osmscout12StreamLoggerD2Ev@Base 0.1
 _ZN8osmscout12TagConditionD0Ev@Base 0.1
 _ZN8osmscout12TagConditionD1Ev@Base 0.1
 _ZN8osmscout12TagConditionD2Ev@Base 0.1
 _ZN8osmscout12TransPolygon12TransformWayERKNS_10ProjectionENS0_14OptimizeMethodERKSt6vectorINS_8GeoCoordESaIS6_EEd@Base 0.1
 _ZN8osmscout12TransPolygon13TransformAreaERKNS_10ProjectionENS0_14OptimizeMethodERKSt6vectorINS_8GeoCoordESaIS6_EEd@Base 0.1
 _ZN8osmscout12TransPolygon17DropSimilarPointsEd@Base 0.1
 _ZN8osmscout12TransPolygon19TransformGeoToPixelERKNS_10ProjectionERKSt6vectorINS_8GeoCoordESaIS5_EE@Base 0.1
 _ZN8osmscout12TransPolygon23DropRedundantPointsFastEd@Base 0.1
 _ZN8osmscout12TransPolygon33DropRedundantPointsDouglasPeuckerEdb@Base 0.1
 _ZN8osmscout12TransPolygonC1Ev@Base 0.1
 _ZN8osmscout12TransPolygonC2Ev@Base 0.1
 _ZN8osmscout12TransPolygonD0Ev@Base 0.1
 _ZN8osmscout12TransPolygonD1Ev@Base 0.1
 _ZN8osmscout12TransPolygonD2Ev@Base 0.1
 _ZN8osmscout12WidthFeature10InitializeERNS_10TypeConfigE@Base 0.1
 _ZN8osmscout12WidthFeature13AllocateValueEPv@Base 0.1
 _ZN8osmscout12WidthFeature4NAMEE@Base 0.1
 _ZN8osmscout12WidthFeatureD0Ev@Base 0.1
 _ZN8osmscout12WidthFeatureD1Ev@Base 0.1
 _ZN8osmscout12WidthFeatureD2Ev@Base 0.1
 _ZN8osmscout13AccessFeature10InitializeERNS_10TypeConfigE@Base 0.1
 _ZN8osmscout13AccessFeature13AllocateValueEPv@Base 0.1
 _ZN8osmscout13AccessFeature4NAMEE@Base 0.1
 _ZN8osmscout13AccessFeatureD0Ev@Base 0.1
 _ZN8osmscout13AccessFeatureD1Ev@Base 0.1
 _ZN8osmscout13AccessFeatureD2Ev@Base 0.1
 _ZN8osmscout13AreaAreaIndex14DumpStatisticsEv@Base 0.1
 _ZN8osmscout13AreaAreaIndex20IndexCacheValueSizerD0Ev@Base 0.1
 _ZN8osmscout13AreaAreaIndex20IndexCacheValueSizerD1Ev@Base 0.1
 _ZN8osmscout13AreaAreaIndex20IndexCacheValueSizerD2Ev@Base 0.1
 _ZN8osmscout13AreaAreaIndex4LoadERKSs@Base 0.1
 _ZN8osmscout13AreaAreaIndex5CloseEv@Base 0.1
 _ZN8osmscout13AreaAreaIndexC1Em@Base 0.1
 _ZN8osmscout13AreaAreaIndexC2Em@Base 0.1
 _ZN8osmscout13AreaNodeIndex14DumpStatisticsEv@Base 0.1
 _ZN8osmscout13AreaNodeIndex4LoadERKSs@Base 0.1
 _ZN8osmscout13AreaNodeIndex5CloseEv@Base 0.1
 _ZN8osmscout13AreaNodeIndex8TypeDataC1Ev@Base 0.1
 _ZN8osmscout13AreaNodeIndex8TypeDataC2Ev@Base 0.1
 _ZN8osmscout13AreaNodeIndexC1Ev@Base 0.1
 _ZN8osmscout13AreaNodeIndexC2Ev@Base 0.1
 _ZN8osmscout13BridgeFeature10InitializeERNS_10TypeConfigE@Base 0.1
 _ZN8osmscout13BridgeFeature4NAMEE@Base 0.1
 _ZN8osmscout13BridgeFeatureD0Ev@Base 0.1
 _ZN8osmscout13BridgeFeatureD1Ev@Base 0.1
 _ZN8osmscout13BridgeFeatureD2Ev@Base 0.1
 _ZN8osmscout13ConsoleLoggerC1Ev@Base 0.1
 _ZN8osmscout13ConsoleLoggerC2Ev@Base 0.1
 _ZN8osmscout13ConsoleLoggerD0Ev@Base 0.1
 _ZN8osmscout13ConsoleLoggerD1Ev@Base 0.1
 _ZN8osmscout13ConsoleLoggerD2Ev@Base 0.1
 _ZN8osmscout13CoordDataFile4OpenERKSsb@Base 0.1
 _ZN8osmscout13CoordDataFile5CloseEv@Base 0.1
 _ZN8osmscout13CoordDataFileC1ERKSs@Base 0.1
 _ZN8osmscout13CoordDataFileC2ERKSs@Base 0.1
 _ZN8osmscout13CoordDataFileD0Ev@Base 0.1
 _ZN8osmscout13CoordDataFileD1Ev@Base 0.1
 _ZN8osmscout13CoordDataFileD2Ev@Base 0.1
 _ZN8osmscout13DebugDatabase17ResolveReferencesERKSsNS_7RefTypeERKSt3setINS_12ObjectOSMRefESt4lessIS5_ESaIS5_EERKS4_INS_13ObjectFileRefES6_ISC_ESaISC_EERSt3mapIS5_SC_S7_SaISt4pairIKS5_SC_EEERSI_ISC_S5_SD_SaISJ_IKSC_S5_EEE@Base 0.1
 _ZN8osmscout13DebugDatabase17ResolveReferencesERKSt3setINS_12ObjectOSMRefESt4lessIS2_ESaIS2_EERKS1_INS_13ObjectFileRefES3_IS9_ESaIS9_EERSt3mapIS2_S9_S4_SaISt4pairIKS2_S9_EEERSF_IS9_S2_SA_SaISG_IKS9_S2_EEE@Base 0.1
 _ZN8osmscout13DebugDatabase4OpenERKSs@Base 0.1
 _ZN8osmscout13DebugDatabase5CloseEv@Base 0.1
 _ZN8osmscout13DebugDatabaseC1ERKNS_22DebugDatabaseParameterE@Base 0.1
 _ZN8osmscout13DebugDatabaseC2ERKNS_22DebugDatabaseParameterE@Base 0.1
 _ZN8osmscout13DebugDatabaseD0Ev@Base 0.1
 _ZN8osmscout13DebugDatabaseD1Ev@Base 0.1
 _ZN8osmscout13DebugDatabaseD2Ev@Base 0.1
 _ZN8osmscout13FeatureReaderINS_13BridgeFeatureEEC1ERKNS_10TypeConfigE@Base 0.1
 _ZN8osmscout13FeatureReaderINS_13BridgeFeatureEEC2ERKNS_10TypeConfigE@Base 0.1
 _ZN8osmscout13FeatureReaderINS_17RoundaboutFeatureEEC1ERKNS_10TypeConfigE@Base 0.1
 _ZN8osmscout13FeatureReaderINS_17RoundaboutFeatureEEC2ERKNS_10TypeConfigE@Base 0.1
 _ZN8osmscout13GetDigitValueEcRm@Base 0.1
 _ZN8osmscout13LocationIndex14DumpStatisticsEv@Base 0.1
 _ZN8osmscout13LocationIndex21FILENAME_LOCATION_IDXE@Base 0.1
 _ZN8osmscout13LocationIndex4LoadERKSs@Base 0.1
 _ZN8osmscout13LocationIndexC1Ev@Base 0.1
 _ZN8osmscout13LocationIndexC2Ev@Base 0.1
 _ZN8osmscout13LocationIndexD0Ev@Base 0.1
 _ZN8osmscout13LocationIndexD1Ev@Base 0.1
 _ZN8osmscout13LocationIndexD2Ev@Base 0.1
 _ZN8osmscout13Magnification16SetMagnificationENS0_3MagE@Base 0.1
 _ZN8osmscout13Magnification16SetMagnificationEd@Base 0.1
 _ZN8osmscout13Magnification8SetLevelEj@Base 0.1
 _ZN8osmscout13PolygonMerger10AddPolygonERKSt6vectorINS_8GeoCoordESaIS2_EERKS1_ImSaImEE@Base 0.1
 _ZN8osmscout13PolygonMerger22RemoveEliminatingEdgesEv@Base 0.1
 _ZN8osmscout13PolygonMerger5MergeERSt4listINS0_7PolygonESaIS2_EE@Base 0.1
 _ZN8osmscout13SINECOEFF_SSEE@Base 0.1
 _ZN8osmscout13TunnelFeature10InitializeERNS_10TypeConfigE@Base 0.1
 _ZN8osmscout13TunnelFeature4NAMEE@Base 0.1
 _ZN8osmscout13TunnelFeatureD0Ev@Base 0.1
 _ZN8osmscout13TunnelFeatureD1Ev@Base 0.1
 _ZN8osmscout13TunnelFeatureD2Ev@Base 0.1
 _ZN8osmscout13_pd_sign_maskE@Base 0.1
 _ZN8osmscout13coordByteSizeE@Base 0.1
 _ZN8osmscout14AddressFeature10InitializeERNS_10TypeConfigE@Base 0.1
 _ZN8osmscout14AddressFeature10NAME_LABELE@Base 0.1
 _ZN8osmscout14AddressFeature13AllocateValueEPv@Base 0.1
 _ZN8osmscout14AddressFeature16NAME_LABEL_INDEXE@Base 0.1
 _ZN8osmscout14AddressFeature4NAMEE@Base 0.1
 _ZN8osmscout14AddressFeatureC1Ev@Base 0.1
 _ZN8osmscout14AddressFeatureC2Ev@Base 0.1
 _ZN8osmscout14AddressFeatureD0Ev@Base 0.1
 _ZN8osmscout14AddressFeatureD1Ev@Base 0.1
 _ZN8osmscout14AddressFeatureD2Ev@Base 0.1
 _ZN8osmscout14AddressVisitorD0Ev@Base 0.1
 _ZN8osmscout14AddressVisitorD1Ev@Base 0.1
 _ZN8osmscout14AddressVisitorD2Ev@Base 0.1
 _ZN8osmscout14LocationSearch5EntryD1Ev@Base 0.1
 _ZN8osmscout14LocationSearch5EntryD2Ev@Base 0.1
 _ZN8osmscout14LocationSearchC1Ev@Base 0.1
 _ZN8osmscout14LocationSearchC2Ev@Base 0.1
 _ZN8osmscout14NameAltFeature10InitializeERNS_10TypeConfigE@Base 0.1
 _ZN8osmscout14NameAltFeature10NAME_LABELE@Base 0.1
 _ZN8osmscout14NameAltFeature13AllocateValueEPv@Base 0.1
 _ZN8osmscout14NameAltFeature16NAME_LABEL_INDEXE@Base 0.1
 _ZN8osmscout14NameAltFeature4NAMEE@Base 0.1
 _ZN8osmscout14NameAltFeatureC1Ev@Base 0.1
 _ZN8osmscout14NameAltFeatureC2Ev@Base 0.1
 _ZN8osmscout14NameAltFeatureD0Ev@Base 0.1
 _ZN8osmscout14NameAltFeatureD1Ev@Base 0.1
 _ZN8osmscout14NameAltFeatureD2Ev@Base 0.1
 _ZN8osmscout14RoutingProfileD0Ev@Base 0.1
 _ZN8osmscout14RoutingProfileD1Ev@Base 0.1
 _ZN8osmscout14RoutingProfileD2Ev@Base 0.1
 _ZN8osmscout14RoutingService10FlushCacheEv@Base 0.1
 _ZN8osmscout14RoutingService13GetStartNodesERKNS_14RoutingProfileERKNS_13ObjectFileRefEmRdS7_RNS_3RefINS_9RouteNodeEEESB_RSt10shared_ptrINS0_5RNodeEESF_@Base 0.1
 _ZN8osmscout14RoutingService14CalculateRouteERKNS_14RoutingProfileENS_7VehicleEdSt6vectorINS_8GeoCoordESaIS6_EERNS_9RouteDataE@Base 0.1
 _ZN8osmscout14RoutingService14CalculateRouteERKNS_14RoutingProfileERKNS_13ObjectFileRefEmS6_mRNS_9RouteDataE@Base 0.1
 _ZN8osmscout14RoutingService14DumpStatisticsEv@Base 0.1
 _ZN8osmscout14RoutingService14GetTargetNodesERKNS_14RoutingProfileERKNS_13ObjectFileRefEmRdS7_RNS_3RefINS_9RouteNodeEEESB_@Base 0.1
 _ZN8osmscout14RoutingService16FILENAME_CAR_DATE@Base 0.1
 _ZN8osmscout14RoutingService16FILENAME_CAR_IDXE@Base 0.1
 _ZN8osmscout14RoutingService17FILENAME_FOOT_DATE@Base 0.1
 _ZN8osmscout14RoutingService17FILENAME_FOOT_IDXE@Base 0.1
 _ZN8osmscout14RoutingService20FILENAME_BICYCLE_DATE@Base 0.1
 _ZN8osmscout14RoutingService20FILENAME_BICYCLE_IDXE@Base 0.1
 _ZN8osmscout14RoutingService23ResolveRNodeChainToListERKSt10shared_ptrINS0_5RNodeEERKSt13unordered_mapImS3_St4hashImESt8equal_toImESaISt4pairIKmS3_EEERSt4listIS3_SaIS3_EE@Base 0.1
 _ZN8osmscout14RoutingService23TransformRouteDataToWayERKNS_9RouteDataERNS_3WayE@Base 0.1
 _ZN8osmscout14RoutingService24GetStartForwardRouteNodeERKNS_14RoutingProfileERKNS_3RefINS_3WayEEEmRNS4_INS_9RouteNodeEEERm@Base 0.1
 _ZN8osmscout14RoutingService24ResolveRNodesToRouteDataERKNS_14RoutingProfileERKSt4listISt10shared_ptrINS0_5RNodeEESaIS7_EERKNS_13ObjectFileRefEmSE_mRNS_9RouteDataE@Base 0.1
 _ZN8osmscout14RoutingService25GetStartBackwardRouteNodeERKNS_14RoutingProfileERKNS_3RefINS_3WayEEEmRNS4_INS_9RouteNodeEEERm@Base 0.1
 _ZN8osmscout14RoutingService25GetTargetForwardRouteNodeERKNS_14RoutingProfileERKNS_3RefINS_3WayEEEmRNS4_INS_9RouteNodeEEE@Base 0.1
 _ZN8osmscout14RoutingService25ResolveRouteDataJunctionsERNS_9RouteDataE@Base 0.1
 _ZN8osmscout14RoutingService26FILENAME_INTERSECTIONS_DATE@Base 0.1
 _ZN8osmscout14RoutingService26FILENAME_INTERSECTIONS_IDXE@Base 0.1
 _ZN8osmscout14RoutingService26GetTargetBackwardRouteNodeERKNS_14RoutingProfileERKNS_3RefINS_3WayEEEmRNS4_INS_9RouteNodeEEE@Base 0.1
 _ZN8osmscout14RoutingService26TransformRouteDataToPointsERKNS_9RouteDataERSt4listINS_5PointESaIS5_EE@Base 0.1
 _ZN8osmscout14RoutingService36TransformRouteDataToRouteDescriptionERKNS_9RouteDataERNS_16RouteDescriptionE@Base 0.1
 _ZN8osmscout14RoutingService4OpenEv@Base 0.1
 _ZN8osmscout14RoutingService5CloseEv@Base 0.1
 _ZN8osmscout14RoutingService8AddNodesERNS_9RouteDataEmmRKNS_13ObjectFileRefEmbm@Base 0.1
 _ZN8osmscout14RoutingServiceC1ERKSt10shared_ptrINS_8DatabaseEERKNS_15RouterParameterENS_7VehicleE@Base 0.1
 _ZN8osmscout14RoutingServiceC2ERKSt10shared_ptrINS_8DatabaseEERKNS_15RouterParameterENS_7VehicleE@Base 0.1
 _ZN8osmscout14RoutingServiceD0Ev@Base 0.1
 _ZN8osmscout14RoutingServiceD1Ev@Base 0.1
 _ZN8osmscout14RoutingServiceD2Ev@Base 0.1
 _ZN8osmscout14StringToNumberEPKcRd@Base 0.1
 _ZN8osmscout14StringToNumberERKSsRd@Base 0.1
 _ZN8osmscout14TileProjection3SetEmmRKNS_13MagnificationEdmm@Base 0.1
 _ZN8osmscout14TileProjectionC1Ev@Base 0.1
 _ZN8osmscout14TileProjectionC2Ev@Base 0.1
 _ZN8osmscout14TileProjectionD0Ev@Base 0.1
 _ZN8osmscout14TileProjectionD1Ev@Base 0.1
 _ZN8osmscout14TileProjectionD2Ev@Base 0.1
 _ZN8osmscout14TokenizeStringERKSsRSt4listISsSaISsEE@Base 0.1
 _ZN8osmscout14_pd_f_exp_maskE@Base 0.1
 _ZN8osmscout14_pd_f_one_maskE@Base 0.1
 _ZN8osmscout15AppendFileToDirERKSsS1_@Base 0.1
 _ZN8osmscout15AreaIsClockwiseERKSt6vectorINS_8GeoCoordESaIS1_EE@Base 0.1
 _ZN8osmscout15COSINECOEFF_SSEE@Base 0.1
 _ZN8osmscout15ConsoleProgress11SetProgressEdd@Base 0.1
 _ZN8osmscout15ConsoleProgress4InfoERKSs@Base 0.1
 _ZN8osmscout15ConsoleProgress5DebugERKSs@Base 0.1
 _ZN8osmscout15ConsoleProgress5ErrorERKSs@Base 0.1
 _ZN8osmscout15ConsoleProgress7SetStepERKSs@Base 0.1
 _ZN8osmscout15ConsoleProgress7WarningERKSs@Base 0.1
 _ZN8osmscout15ConsoleProgress9SetActionERKSs@Base 0.1
 _ZN8osmscout15ConsoleProgressD0Ev@Base 0.1
 _ZN8osmscout15ConsoleProgressD1Ev@Base 0.1
 _ZN8osmscout15ConsoleProgressD2Ev@Base 0.1
 _ZN8osmscout15EleFeatureValue4ReadERNS_11FileScannerE@Base 0.1
 _ZN8osmscout15EleFeatureValue5WriteERNS_10FileWriterE@Base 0.1
 _ZN8osmscout15EleFeatureValueD0Ev@Base 0.1
 _ZN8osmscout15EleFeatureValueD1Ev@Base 0.1
 _ZN8osmscout15EleFeatureValueD2Ev@Base 0.1
 _ZN8osmscout15EleFeatureValueaSERKNS_12FeatureValueE@Base 0.1
 _ZN8osmscout15FeatureInstanceC1ERKNS_3RefINS_7FeatureEEEPKNS_8TypeInfoEmm@Base 0.1
 _ZN8osmscout15FeatureInstanceC2ERKNS_3RefINS_7FeatureEEEPKNS_8TypeInfoEmm@Base 0.1
 _ZN8osmscout15IndexedDataFileImNS_12IntersectionEED0Ev@Base 0.1
 _ZN8osmscout15IndexedDataFileImNS_12IntersectionEED1Ev@Base 0.1
 _ZN8osmscout15IndexedDataFileImNS_12IntersectionEED2Ev@Base 0.1
 _ZN8osmscout15IndexedDataFileImNS_9RouteNodeEED0Ev@Base 0.1
 _ZN8osmscout15IndexedDataFileImNS_9RouteNodeEED1Ev@Base 0.1
 _ZN8osmscout15IndexedDataFileImNS_9RouteNodeEED2Ev@Base 0.1
 _ZN8osmscout15LocationFeature10InitializeERNS_10TypeConfigE@Base 0.1
 _ZN8osmscout15LocationFeature13AllocateValueEPv@Base 0.1
 _ZN8osmscout15LocationFeature4NAMEE@Base 0.1
 _ZN8osmscout15LocationFeatureD0Ev@Base 0.1
 _ZN8osmscout15LocationFeatureD1Ev@Base 0.1
 _ZN8osmscout15LocationFeatureD2Ev@Base 0.1
 _ZN8osmscout15LocationService14VisitorMatcherC1ERKSs@Base 0.1
 _ZN8osmscout15LocationService14VisitorMatcherC2ERKSs@Base 0.1
 _ZN8osmscout15LocationService19AddressMatchVisitor13AddressResultD1Ev@Base 0.1
 _ZN8osmscout15LocationService19AddressMatchVisitor13AddressResultD2Ev@Base 0.1
 _ZN8osmscout15LocationService19AddressMatchVisitor5VisitERKNS_11AdminRegionERKNS_8LocationERKNS_7AddressE@Base 0.1
 _ZN8osmscout15LocationService19AddressMatchVisitorC1ERKSsm@Base 0.1
 _ZN8osmscout15LocationService19AddressMatchVisitorC2ERKSsm@Base 0.1
 _ZN8osmscout15LocationService19AddressMatchVisitorD0Ev@Base 0.1
 _ZN8osmscout15LocationService19AddressMatchVisitorD1Ev@Base 0.1
 _ZN8osmscout15LocationService19AddressMatchVisitorD2Ev@Base 0.1
 _ZN8osmscout15LocationService19ReverseLookupResultD1Ev@Base 0.1
 _ZN8osmscout15LocationService19ReverseLookupResultD2Ev@Base 0.1
 _ZN8osmscout15LocationService20LocationMatchVisitor14LocationResultD1Ev@Base 0.1
 _ZN8osmscout15LocationService20LocationMatchVisitor14LocationResultD2Ev@Base 0.1
 _ZN8osmscout15LocationService20LocationMatchVisitor5VisitERKNS_11AdminRegionERKNS_3POIE@Base 0.1
 _ZN8osmscout15LocationService20LocationMatchVisitor5VisitERKNS_11AdminRegionERKNS_8LocationE@Base 0.1
 _ZN8osmscout15LocationService20LocationMatchVisitor9POIResultD1Ev@Base 0.1
 _ZN8osmscout15LocationService20LocationMatchVisitor9POIResultD2Ev@Base 0.1
 _ZN8osmscout15LocationService20LocationMatchVisitorC1ERKSt10shared_ptrINS_11AdminRegionEERKSsm@Base 0.1
 _ZN8osmscout15LocationService20LocationMatchVisitorC2ERKSt10shared_ptrINS_11AdminRegionEERKSsm@Base 0.1
 _ZN8osmscout15LocationService20LocationMatchVisitorD0Ev@Base 0.1
 _ZN8osmscout15LocationService20LocationMatchVisitorD1Ev@Base 0.1
 _ZN8osmscout15LocationService20LocationMatchVisitorD2Ev@Base 0.1
 _ZN8osmscout15LocationService23AdminRegionMatchVisitor5VisitERKNS_11AdminRegionE@Base 0.1
 _ZN8osmscout15LocationService23AdminRegionMatchVisitorC1ERKSsm@Base 0.1
 _ZN8osmscout15LocationService23AdminRegionMatchVisitorC2ERKSsm@Base 0.1
 _ZN8osmscout15LocationService23AdminRegionMatchVisitorD0Ev@Base 0.1
 _ZN8osmscout15LocationService23AdminRegionMatchVisitorD1Ev@Base 0.1
 _ZN8osmscout15LocationService23AdminRegionMatchVisitorD2Ev@Base 0.1
 _ZN8osmscout15LocationService31InitializeLocationSearchEntriesERKSsRNS_14LocationSearchE@Base 0.1
 _ZN8osmscout15LocationServiceC1ERKSt10shared_ptrINS_8DatabaseEE@Base 0.1
 _ZN8osmscout15LocationServiceC2ERKSt10shared_ptrINS_8DatabaseEE@Base 0.1
 _ZN8osmscout15LocationVisitorD0Ev@Base 0.1
 _ZN8osmscout15LocationVisitorD1Ev@Base 0.1
 _ZN8osmscout15LocationVisitorD2Ev@Base 0.1
 _ZN8osmscout15MaxSpeedFeature10InitializeERNS_10TypeConfigE@Base 0.1
 _ZN8osmscout15MaxSpeedFeature13AllocateValueEPv@Base 0.1
 _ZN8osmscout15MaxSpeedFeature4NAMEE@Base 0.1
 _ZN8osmscout15MaxSpeedFeatureD0Ev@Base 0.1
 _ZN8osmscout15MaxSpeedFeatureD1Ev@Base 0.1
 _ZN8osmscout15MaxSpeedFeatureD2Ev@Base 0.1
 _ZN8osmscout15RefFeatureValue4ReadERNS_11FileScannerE@Base 0.1
 _ZN8osmscout15RefFeatureValue5WriteERNS_10FileWriterE@Base 0.1
 _ZN8osmscout15RefFeatureValueD0Ev@Base 0.1
 _ZN8osmscout15RefFeatureValueD1Ev@Base 0.1
 _ZN8osmscout15RefFeatureValueD2Ev@Base 0.1
 _ZN8osmscout15RefFeatureValueaSERKNS_12FeatureValueE@Base 0.1
 _ZN8osmscout15RouterParameter19SetDebugPerformanceEb@Base 0.1
 _ZN8osmscout15RouterParameterC1Ev@Base 0.1
 _ZN8osmscout15RouterParameterC2Ev@Base 0.1
 _ZN8osmscout15ScanConvertLineEiiiiRSt6vectorINS_8ScanCellESaIS1_EE@Base 0.1
 _ZN8osmscout15TagNotConditionC1EPNS_12TagConditionE@Base 0.1
 _ZN8osmscout15TagNotConditionC2EPNS_12TagConditionE@Base 0.1
 _ZN8osmscout15TagNotConditionD0Ev@Base 0.1
 _ZN8osmscout15TagNotConditionD1Ev@Base 0.1
 _ZN8osmscout15TagNotConditionD2Ev@Base 0.1
 _ZN8osmscout15ThreadedBreaker5BreakEv@Base 0.1
 _ZN8osmscout15ThreadedBreakerC1Ev@Base 0.1
 _ZN8osmscout15ThreadedBreakerC2Ev@Base 0.1
 _ZN8osmscout15ThreadedBreakerD0Ev@Base 0.1
 _ZN8osmscout15ThreadedBreakerD1Ev@Base 0.1
 _ZN8osmscout15ThreadedBreakerD2Ev@Base 0.1
 _ZN8osmscout15TurnRestriction4ReadERNS_11FileScannerE@Base 0.1
 _ZN8osmscout16ByteSizeToStringEd@Base 0.1
 _ZN8osmscout16NameFeatureValue4ReadERNS_11FileScannerE@Base 0.1
 _ZN8osmscout16NameFeatureValue5WriteERNS_10FileWriterE@Base 0.1
 _ZN8osmscout16NameFeatureValueD0Ev@Base 0.1
 _ZN8osmscout16NameFeatureValueD1Ev@Base 0.1
 _ZN8osmscout16NameFeatureValueD2Ev@Base 0.1
 _ZN8osmscout16NameFeatureValueaSERKNS_12FeatureValueE@Base 0.1
 _ZN8osmscout16RouteDescription11DescriptionD0Ev@Base 0.1
 _ZN8osmscout16RouteDescription11DescriptionD1Ev@Base 0.1
 _ZN8osmscout16RouteDescription11DescriptionD2Ev@Base 0.1
 _ZN8osmscout16RouteDescription13WAY_NAME_DESCE@Base 0.1
 _ZN8osmscout16RouteDescription14DIRECTION_DESCE@Base 0.1
 _ZN8osmscout16RouteDescription15NODE_START_DESCE@Base 0.1
 _ZN8osmscout16RouteDescription15NameDescriptionC1ERKSs@Base 0.1
 _ZN8osmscout16RouteDescription15NameDescriptionC1ERKSsS3_@Base 0.1
 _ZN8osmscout16RouteDescription15NameDescriptionC2ERKSs@Base 0.1
 _ZN8osmscout16RouteDescription15NameDescriptionC2ERKSsS3_@Base 0.1
 _ZN8osmscout16RouteDescription15NameDescriptionD0Ev@Base 0.1
 _ZN8osmscout16RouteDescription15NameDescriptionD1Ev@Base 0.1
 _ZN8osmscout16RouteDescription15NameDescriptionD2Ev@Base 0.1
 _ZN8osmscout16RouteDescription15TurnDescriptionC1Ev@Base 0.1
 _ZN8osmscout16RouteDescription15TurnDescriptionC2Ev@Base 0.1
 _ZN8osmscout16RouteDescription15TurnDescriptionD0Ev@Base 0.1
 _ZN8osmscout16RouteDescription15TurnDescriptionD1Ev@Base 0.1
 _ZN8osmscout16RouteDescription15TurnDescriptionD2Ev@Base 0.1
 _ZN8osmscout16RouteDescription16NODE_TARGET_DESCE@Base 0.1
 _ZN8osmscout16RouteDescription16StartDescriptionC1ERKSs@Base 0.1
 _ZN8osmscout16RouteDescription16StartDescriptionC2ERKSs@Base 0.1
 _ZN8osmscout16RouteDescription16StartDescriptionD0Ev@Base 0.1
 _ZN8osmscout16RouteDescription16StartDescriptionD1Ev@Base 0.1
 _ZN8osmscout16RouteDescription16StartDescriptionD2Ev@Base 0.1
 _ZN8osmscout16RouteDescription17TargetDescriptionC1ERKSs@Base 0.1
 _ZN8osmscout16RouteDescription17TargetDescriptionC2ERKSs@Base 0.1
 _ZN8osmscout16RouteDescription17TargetDescriptionD0Ev@Base 0.1
 _ZN8osmscout16RouteDescription17TargetDescriptionD1Ev@Base 0.1
 _ZN8osmscout16RouteDescription17TargetDescriptionD2Ev@Base 0.1
 _ZN8osmscout16RouteDescription18CROSSING_WAYS_DESCE@Base 0.1
 _ZN8osmscout16RouteDescription19MOTORWAY_ENTER_DESCE@Base 0.1
 _ZN8osmscout16RouteDescription19MOTORWAY_LEAVE_DESCE@Base 0.1
 _ZN8osmscout16RouteDescription20DirectionDescriptionC1Edd@Base 0.1
 _ZN8osmscout16RouteDescription20DirectionDescriptionC2Edd@Base 0.1
 _ZN8osmscout16RouteDescription20DirectionDescriptionD0Ev@Base 0.1
 _ZN8osmscout16RouteDescription20DirectionDescriptionD1Ev@Base 0.1
 _ZN8osmscout16RouteDescription20DirectionDescriptionD2Ev@Base 0.1
 _ZN8osmscout16RouteDescription20MOTORWAY_CHANGE_DESCE@Base 0.1
 _ZN8osmscout16RouteDescription21ROUNDABOUT_ENTER_DESCE@Base 0.1
 _ZN8osmscout16RouteDescription21ROUNDABOUT_LEAVE_DESCE@Base 0.1
 _ZN8osmscout16RouteDescription21WAY_NAME_CHANGED_DESCE@Base 0.1
 _ZN8osmscout16RouteDescription22MOTORWAY_JUNCTION_DESCE@Base 0.1
 _ZN8osmscout16RouteDescription22NameChangedDescriptionC1EPNS0_15NameDescriptionES3_@Base 0.1
 _ZN8osmscout16RouteDescription22NameChangedDescriptionC2EPNS0_15NameDescriptionES3_@Base 0.1
 _ZN8osmscout16RouteDescription22NameChangedDescriptionD0Ev@Base 0.1
 _ZN8osmscout16RouteDescription22NameChangedDescriptionD1Ev@Base 0.1
 _ZN8osmscout16RouteDescription22NameChangedDescriptionD2Ev@Base 0.1
 _ZN8osmscout16RouteDescription23CrossingWaysDescription14AddDescriptionEPNS0_15NameDescriptionE@Base 0.1
 _ZN8osmscout16RouteDescription23CrossingWaysDescriptionC1EmPNS0_15NameDescriptionES3_@Base 0.1
 _ZN8osmscout16RouteDescription23CrossingWaysDescriptionC2EmPNS0_15NameDescriptionES3_@Base 0.1
 _ZN8osmscout16RouteDescription23CrossingWaysDescriptionD0Ev@Base 0.1
 _ZN8osmscout16RouteDescription23CrossingWaysDescriptionD1Ev@Base 0.1
 _ZN8osmscout16RouteDescription23CrossingWaysDescriptionD2Ev@Base 0.1
 _ZN8osmscout16RouteDescription24MotorwayEnterDescriptionC1EPNS0_15NameDescriptionE@Base 0.1
 _ZN8osmscout16RouteDescription24MotorwayEnterDescriptionC2EPNS0_15NameDescriptionE@Base 0.1
 _ZN8osmscout16RouteDescription24MotorwayEnterDescriptionD0Ev@Base 0.1
 _ZN8osmscout16RouteDescription24MotorwayEnterDescriptionD1Ev@Base 0.1
 _ZN8osmscout16RouteDescription24MotorwayEnterDescriptionD2Ev@Base 0.1
 _ZN8osmscout16RouteDescription24MotorwayLeaveDescriptionC1EPNS0_15NameDescriptionE@Base 0.1
 _ZN8osmscout16RouteDescription24MotorwayLeaveDescriptionC2EPNS0_15NameDescriptionE@Base 0.1
 _ZN8osmscout16RouteDescription24MotorwayLeaveDescriptionD0Ev@Base 0.1
 _ZN8osmscout16RouteDescription24MotorwayLeaveDescriptionD1Ev@Base 0.1
 _ZN8osmscout16RouteDescription24MotorwayLeaveDescriptionD2Ev@Base 0.1
 _ZN8osmscout16RouteDescription25MotorwayChangeDescriptionC1EPNS0_15NameDescriptionES3_@Base 0.1
 _ZN8osmscout16RouteDescription25MotorwayChangeDescriptionC2EPNS0_15NameDescriptionES3_@Base 0.1
 _ZN8osmscout16RouteDescription25MotorwayChangeDescriptionD0Ev@Base 0.1
 _ZN8osmscout16RouteDescription25MotorwayChangeDescriptionD1Ev@Base 0.1
 _ZN8osmscout16RouteDescription25MotorwayChangeDescriptionD2Ev@Base 0.1
 _ZN8osmscout16RouteDescription26RoundaboutEnterDescriptionC1Ev@Base 0.1
 _ZN8osmscout16RouteDescription26RoundaboutEnterDescriptionC2Ev@Base 0.1
 _ZN8osmscout16RouteDescription26RoundaboutEnterDescriptionD0Ev@Base 0.1
 _ZN8osmscout16RouteDescription26RoundaboutEnterDescriptionD1Ev@Base 0.1
 _ZN8osmscout16RouteDescription26RoundaboutEnterDescriptionD2Ev@Base 0.1
 _ZN8osmscout16RouteDescription26RoundaboutLeaveDescriptionC1Em@Base 0.1
 _ZN8osmscout16RouteDescription26RoundaboutLeaveDescriptionC2Em@Base 0.1
 _ZN8osmscout16RouteDescription26RoundaboutLeaveDescriptionD0Ev@Base 0.1
 _ZN8osmscout16RouteDescription26RoundaboutLeaveDescriptionD1Ev@Base 0.1
 _ZN8osmscout16RouteDescription26RoundaboutLeaveDescriptionD2Ev@Base 0.1
 _ZN8osmscout16RouteDescription27MotorwayJunctionDescriptionC1EPNS0_15NameDescriptionE@Base 0.1
 _ZN8osmscout16RouteDescription27MotorwayJunctionDescriptionC2EPNS0_15NameDescriptionE@Base 0.1
 _ZN8osmscout16RouteDescription27MotorwayJunctionDescriptionD0Ev@Base 0.1
 _ZN8osmscout16RouteDescription27MotorwayJunctionDescriptionD1Ev@Base 0.1
 _ZN8osmscout16RouteDescription27MotorwayJunctionDescriptionD2Ev@Base 0.1
 _ZN8osmscout16RouteDescription4Node11SetDistanceEd@Base 0.1
 _ZN8osmscout16RouteDescription4Node11SetLocationERKNS_8GeoCoordE@Base 0.1
 _ZN8osmscout16RouteDescription4Node14AddDescriptionEPKcPNS0_11DescriptionE@Base 0.1
 _ZN8osmscout16RouteDescription4Node7SetTimeEd@Base 0.1
 _ZN8osmscout16RouteDescription4NodeC1EmRKSt6vectorINS_13ObjectFileRefESaIS3_EERKS3_m@Base 0.1
 _ZN8osmscout16RouteDescription4NodeC2EmRKSt6vectorINS_13ObjectFileRefESaIS3_EERKS3_m@Base 0.1
 _ZN8osmscout16RouteDescription4NodeD1Ev@Base 0.1
 _ZN8osmscout16RouteDescription4NodeD2Ev@Base 0.1
 _ZN8osmscout16RouteDescription5ClearEv@Base 0.1
 _ZN8osmscout16RouteDescription7AddNodeEmRKSt6vectorINS_13ObjectFileRefESaIS2_EERKS2_m@Base 0.1
 _ZN8osmscout16RouteDescription9TURN_DESCE@Base 0.1
 _ZN8osmscout16RouteDescriptionC1Ev@Base 0.1
 _ZN8osmscout16RouteDescriptionC2Ev@Base 0.1
 _ZN8osmscout16RouteDescriptionD0Ev@Base 0.1
 _ZN8osmscout16RouteDescriptionD1Ev@Base 0.1
 _ZN8osmscout16RouteDescriptionD2Ev@Base 0.1
 _ZN8osmscout16TagBoolCondition12AddConditionEPNS_12TagConditionE@Base 0.1
 _ZN8osmscout16TagBoolConditionC1ENS0_4TypeE@Base 0.1
 _ZN8osmscout16TagBoolConditionC2ENS0_4TypeE@Base 0.1
 _ZN8osmscout16TagBoolConditionD0Ev@Base 0.1
 _ZN8osmscout16TagBoolConditionD1Ev@Base 0.1
 _ZN8osmscout16TagBoolConditionD2Ev@Base 0.1
 _ZN8osmscout16TagIsInCondition11AddTagValueERKSs@Base 0.1
 _ZN8osmscout16TagIsInConditionC1Et@Base 0.1
 _ZN8osmscout16TagIsInConditionC2Et@Base 0.1
 _ZN8osmscout16TagIsInConditionD0Ev@Base 0.1
 _ZN8osmscout16TagIsInConditionD1Ev@Base 0.1
 _ZN8osmscout16TagIsInConditionD2Ev@Base 0.1
 _ZN8osmscout16_pd_log_inv_1_32E@Base 0.1
 _ZN8osmscout16_pd_log_inv_1_74E@Base 0.1
 _ZN8osmscout17AdminLevelFeature10InitializeERNS_10TypeConfigE@Base 0.1
 _ZN8osmscout17AdminLevelFeature13AllocateValueEPv@Base 0.1
 _ZN8osmscout17AdminLevelFeature4NAMEE@Base 0.1
 _ZN8osmscout17AdminLevelFeatureD0Ev@Base 0.1
 _ZN8osmscout17AdminLevelFeatureD1Ev@Base 0.1
 _ZN8osmscout17AdminLevelFeatureD2Ev@Base 0.1
 _ZN8osmscout17DatabaseParameter15SetWayCacheSizeEm@Base 0.1
 _ZN8osmscout17DatabaseParameter16SetAreaCacheSizeEm@Base 0.1
 _ZN8osmscout17DatabaseParameter16SetNodeCacheSizeEm@Base 0.1
 _ZN8osmscout17DatabaseParameter25SetAreaAreaIndexCacheSizeEm@Base 0.1
 _ZN8osmscout17DatabaseParameter25SetAreaNodeIndexCacheSizeEm@Base 0.1
 _ZN8osmscout17DatabaseParameterC1Ev@Base 0.1
 _ZN8osmscout17DatabaseParameterC2Ev@Base 0.1
 _ZN8osmscout17GradeFeatureValue4ReadERNS_11FileScannerE@Base 0.1
 _ZN8osmscout17GradeFeatureValue5WriteERNS_10FileWriterE@Base 0.1
 _ZN8osmscout17GradeFeatureValueD0Ev@Base 0.1
 _ZN8osmscout17GradeFeatureValueD1Ev@Base 0.1
 _ZN8osmscout17GradeFeatureValueD2Ev@Base 0.1
 _ZN8osmscout17GradeFeatureValueaSERKNS_12FeatureValueE@Base 0.1
 _ZN8osmscout17LayerFeatureValue4ReadERNS_11FileScannerE@Base 0.1
 _ZN8osmscout17LayerFeatureValue5WriteERNS_10FileWriterE@Base 0.1
 _ZN8osmscout17LayerFeatureValueD0Ev@Base 0.1
 _ZN8osmscout17LayerFeatureValueD1Ev@Base 0.1
 _ZN8osmscout17LayerFeatureValueD2Ev@Base 0.1
 _ZN8osmscout17LayerFeatureValueaSERKNS_12FeatureValueE@Base 0.1
 _ZN8osmscout17RoundaboutFeature10InitializeERNS_10TypeConfigE@Base 0.1
 _ZN8osmscout17RoundaboutFeature4NAMEE@Base 0.1
 _ZN8osmscout17RoundaboutFeatureD0Ev@Base 0.1
 _ZN8osmscout17RoundaboutFeatureD1Ev@Base 0.1
 _ZN8osmscout17RoundaboutFeatureD2Ev@Base 0.1
 _ZN8osmscout17SimplifyTokenListERSt4listISsSaISsEE@Base 0.1
 _ZN8osmscout17WidthFeatureValue4ReadERNS_11FileScannerE@Base 0.1
 _ZN8osmscout17WidthFeatureValue5WriteERNS_10FileWriterE@Base 0.1
 _ZN8osmscout17WidthFeatureValueD0Ev@Base 0.1
 _ZN8osmscout17WidthFeatureValueD1Ev@Base 0.1
 _ZN8osmscout17WidthFeatureValueD2Ev@Base 0.1
 _ZN8osmscout17WidthFeatureValueaSERKNS_12FeatureValueE@Base 0.1
 _ZN8osmscout17distanceToSegmentEddddddRdS0_S0_@Base 0.1
 _ZN8osmscout18AccessFeatureValue4ReadERNS_11FileScannerE@Base 0.1
 _ZN8osmscout18AccessFeatureValue5WriteERNS_10FileWriterE@Base 0.1
 _ZN8osmscout18AccessFeatureValueD0Ev@Base 0.1
 _ZN8osmscout18AccessFeatureValueD1Ev@Base 0.1
 _ZN8osmscout18AccessFeatureValueD2Ev@Base 0.1
 _ZN8osmscout18AccessFeatureValueaSERKNS_12FeatureValueE@Base 0.1
 _ZN8osmscout18AddressListVisitor13AddressResultD1Ev@Base 0.1
 _ZN8osmscout18AddressListVisitor13AddressResultD2Ev@Base 0.1
 _ZN8osmscout18AddressListVisitor5VisitERKNS_11AdminRegionERKNS_8LocationERKNS_7AddressE@Base 0.1
 _ZN8osmscout18AddressListVisitorC1Em@Base 0.1
 _ZN8osmscout18AddressListVisitorC2Em@Base 0.1
 _ZN8osmscout18AddressListVisitorD0Ev@Base 0.1
 _ZN8osmscout18AddressListVisitorD1Ev@Base 0.1
 _ZN8osmscout18AddressListVisitorD2Ev@Base 0.1
 _ZN8osmscout18AdminRegionVisitorD0Ev@Base 0.1
 _ZN8osmscout18AdminRegionVisitorD1Ev@Base 0.1
 _ZN8osmscout18AdminRegionVisitorD2Ev@Base 0.1
 _ZN8osmscout18FeatureValueBuffer10DeleteDataEv@Base 0.1
 _ZN8osmscout18FeatureValueBuffer12AllocateDataEv@Base 0.1
 _ZN8osmscout18FeatureValueBuffer13AllocateValueEm@Base 0.1
 _ZN8osmscout18FeatureValueBuffer3SetERKS0_@Base 0.1
 _ZN8osmscout18FeatureValueBuffer4ReadERNS_11FileScannerE@Base 0.1
 _ZN8osmscout18FeatureValueBuffer4ReadERNS_11FileScannerERb@Base 0.1
 _ZN8osmscout18FeatureValueBuffer5ParseERNS_8ProgressERKNS_10TypeConfigERKNS_12ObjectOSMRefERKSt13unordered_mapItSsSt4hashItESt8equal_toItESaISt4pairIKtSsEEE@Base 0.1
 _ZN8osmscout18FeatureValueBuffer7SetTypeERKSt10shared_ptrINS_8TypeInfoEE@Base 0.1
 _ZN8osmscout18FeatureValueBuffer9FreeValueEm@Base 0.1
 _ZN8osmscout18FeatureValueBufferC1ERKS0_@Base 0.1
 _ZN8osmscout18FeatureValueBufferC1Ev@Base 0.1
 _ZN8osmscout18FeatureValueBufferC2ERKS0_@Base 0.1
 _ZN8osmscout18FeatureValueBufferC2Ev@Base 0.1
 _ZN8osmscout18FeatureValueBufferD0Ev@Base 0.1
 _ZN8osmscout18FeatureValueBufferD1Ev@Base 0.1
 _ZN8osmscout18FeatureValueBufferD2Ev@Base 0.1
 _ZN8osmscout18FeatureValueBufferaSERKS0_@Base 0.1
 _ZN8osmscout18FeatureValueReaderINS_10RefFeatureENS_15RefFeatureValueEEC1ERKNS_10TypeConfigE@Base 0.1
 _ZN8osmscout18FeatureValueReaderINS_10RefFeatureENS_15RefFeatureValueEEC2ERKNS_10TypeConfigE@Base 0.1
 _ZN8osmscout18FeatureValueReaderINS_11NameFeatureENS_16NameFeatureValueEEC1ERKNS_10TypeConfigE@Base 0.1
 _ZN8osmscout18FeatureValueReaderINS_11NameFeatureENS_16NameFeatureValueEEC2ERKNS_10TypeConfigE@Base 0.1
 _ZN8osmscout18FeatureValueReaderINS_13AccessFeatureENS_18AccessFeatureValueEEC1ERKNS_10TypeConfigE@Base 0.1
 _ZN8osmscout18FeatureValueReaderINS_13AccessFeatureENS_18AccessFeatureValueEEC2ERKNS_10TypeConfigE@Base 0.1
 _ZN8osmscout18FeatureValueReaderINS_15MaxSpeedFeatureENS_20MaxSpeedFeatureValueEEC1ERKNS_10TypeConfigE@Base 0.1
 _ZN8osmscout18FeatureValueReaderINS_15MaxSpeedFeatureENS_20MaxSpeedFeatureValueEEC2ERKNS_10TypeConfigE@Base 0.1
 _ZN8osmscout18MercatorProjection3SetEdddRKNS_13MagnificationEdmm@Base 0.1
 _ZN8osmscout18MercatorProjection4MoveEdd@Base 0.1
 _ZN8osmscout18MercatorProjectionC1Ev@Base 0.1
 _ZN8osmscout18MercatorProjectionC2Ev@Base 0.1
 _ZN8osmscout18MercatorProjectionD0Ev@Base 0.1
 _ZN8osmscout18MercatorProjectionD1Ev@Base 0.1
 _ZN8osmscout18MercatorProjectionD2Ev@Base 0.1
 _ZN8osmscout18RoutePostprocessor13PostprocessorD0Ev@Base 0.1
 _ZN8osmscout18RoutePostprocessor13PostprocessorD1Ev@Base 0.1
 _ZN8osmscout18RoutePostprocessor13PostprocessorD2Ev@Base 0.1
 _ZN8osmscout18RoutePostprocessor18StartPostprocessor7ProcessERKS0_RKNS_14RoutingProfileERNS_16RouteDescriptionERNS_8DatabaseE@Base 0.1
 _ZN8osmscout18RoutePostprocessor18StartPostprocessorC1ERKSs@Base 0.1
 _ZN8osmscout18RoutePostprocessor18StartPostprocessorC2ERKSs@Base 0.1
 _ZN8osmscout18RoutePostprocessor18StartPostprocessorD0Ev@Base 0.1
 _ZN8osmscout18RoutePostprocessor18StartPostprocessorD1Ev@Base 0.1
 _ZN8osmscout18RoutePostprocessor18StartPostprocessorD2Ev@Base 0.1
 _ZN8osmscout18RoutePostprocessor19TargetPostprocessor7ProcessERKS0_RKNS_14RoutingProfileERNS_16RouteDescriptionERNS_8DatabaseE@Base 0.1
 _ZN8osmscout18RoutePostprocessor19TargetPostprocessorC1ERKSs@Base 0.1
 _ZN8osmscout18RoutePostprocessor19TargetPostprocessorC2ERKSs@Base 0.1
 _ZN8osmscout18RoutePostprocessor19TargetPostprocessorD0Ev@Base 0.1
 _ZN8osmscout18RoutePostprocessor19TargetPostprocessorD1Ev@Base 0.1
 _ZN8osmscout18RoutePostprocessor19TargetPostprocessorD2Ev@Base 0.1
 _ZN8osmscout18RoutePostprocessor20WayNamePostprocessor7ProcessERKS0_RKNS_14RoutingProfileERNS_16RouteDescriptionERNS_8DatabaseE@Base 0.1
 _ZN8osmscout18RoutePostprocessor20WayNamePostprocessorC1Ev@Base 0.1
 _ZN8osmscout18RoutePostprocessor20WayNamePostprocessorC2Ev@Base 0.1
 _ZN8osmscout18RoutePostprocessor20WayNamePostprocessorD0Ev@Base 0.1
 _ZN8osmscout18RoutePostprocessor20WayNamePostprocessorD1Ev@Base 0.1
 _ZN8osmscout18RoutePostprocessor20WayNamePostprocessorD2Ev@Base 0.1
 _ZN8osmscout18RoutePostprocessor22DirectionPostprocessor13curveMinAngleE@Base 0.1
 _ZN8osmscout18RoutePostprocessor22DirectionPostprocessor16curveMaxDistanceE@Base 0.1
 _ZN8osmscout18RoutePostprocessor22DirectionPostprocessor20curveMaxInitialAngleE@Base 0.1
 _ZN8osmscout18RoutePostprocessor22DirectionPostprocessor20curveMaxNodeDistanceE@Base 0.1
 _ZN8osmscout18RoutePostprocessor22DirectionPostprocessor20curveMinInitialAngleE@Base 0.1
 _ZN8osmscout18RoutePostprocessor22DirectionPostprocessor7ProcessERKS0_RKNS_14RoutingProfileERNS_16RouteDescriptionERNS_8DatabaseE@Base 0.1
 _ZN8osmscout18RoutePostprocessor22DirectionPostprocessorC1Ev@Base 0.1
 _ZN8osmscout18RoutePostprocessor22DirectionPostprocessorC2Ev@Base 0.1
 _ZN8osmscout18RoutePostprocessor22DirectionPostprocessorD0Ev@Base 0.1
 _ZN8osmscout18RoutePostprocessor22DirectionPostprocessorD1Ev@Base 0.1
 _ZN8osmscout18RoutePostprocessor22DirectionPostprocessorD2Ev@Base 0.1
 _ZN8osmscout18RoutePostprocessor22ResolveAllAreasAndWaysERKNS_16RouteDescriptionERNS_8DatabaseE@Base 0.1
 _ZN8osmscout18RoutePostprocessor24InstructionPostprocessor15AddMotorwayTypeERKSt10shared_ptrINS_8TypeInfoEE@Base 0.1
 _ZN8osmscout18RoutePostprocessor24InstructionPostprocessor15GetInitialStateERKS0_RNS_16RouteDescription4NodeE@Base 0.1
 _ZN8osmscout18RoutePostprocessor24InstructionPostprocessor16HandleNameChangeERKSt4listINS_16RouteDescription4NodeESaIS4_EERSt20_List_const_iteratorIS4_ERSt14_List_iteratorIS4_E@Base 0.1
 _ZN8osmscout18RoutePostprocessor24InstructionPostprocessor19AddMotorwayLinkTypeERKSt10shared_ptrINS_8TypeInfoEE@Base 0.1
 _ZN8osmscout18RoutePostprocessor24InstructionPostprocessor20HandleRoundaboutNodeERNS_16RouteDescription4NodeE@Base 0.1
 _ZN8osmscout18RoutePostprocessor24InstructionPostprocessor21HandleDirectionChangeERKSt4listINS_16RouteDescription4NodeESaIS4_EERSt14_List_iteratorIS4_E@Base 0.1
 _ZN8osmscout18RoutePostprocessor24InstructionPostprocessor21HandleRoundaboutEnterERNS_16RouteDescription4NodeE@Base 0.1
 _ZN8osmscout18RoutePostprocessor24InstructionPostprocessor21HandleRoundaboutLeaveERNS_16RouteDescription4NodeE@Base 0.1
 _ZN8osmscout18RoutePostprocessor24InstructionPostprocessor25HandleDirectMotorwayEnterERNS_16RouteDescription4NodeERKNS_3RefINS2_15NameDescriptionEEE@Base 0.1
 _ZN8osmscout18RoutePostprocessor24InstructionPostprocessor25HandleDirectMotorwayLeaveERNS_16RouteDescription4NodeERKNS_3RefINS2_15NameDescriptionEEE@Base 0.1
 _ZN8osmscout18RoutePostprocessor24InstructionPostprocessor7ProcessERKS0_RKNS_14RoutingProfileERNS_16RouteDescriptionERNS_8DatabaseE@Base 0.1
 _ZN8osmscout18RoutePostprocessor24InstructionPostprocessorD0Ev@Base 0.1
 _ZN8osmscout18RoutePostprocessor24InstructionPostprocessorD1Ev@Base 0.1
 _ZN8osmscout18RoutePostprocessor24InstructionPostprocessorD2Ev@Base 0.1
 _ZN8osmscout18RoutePostprocessor25CrossingWaysPostprocessor27AddCrossingWaysDescriptionsERKS0_PNS_16RouteDescription23CrossingWaysDescriptionERKNS4_4NodeERKNS_13ObjectFileRefESC_@Base 0.1
 _ZN8osmscout18RoutePostprocessor25CrossingWaysPostprocessor7ProcessERKS0_RKNS_14RoutingProfileERNS_16RouteDescriptionERNS_8DatabaseE@Base 0.1
 _ZN8osmscout18RoutePostprocessor25CrossingWaysPostprocessorC1Ev@Base 0.1
 _ZN8osmscout18RoutePostprocessor25CrossingWaysPostprocessorC2Ev@Base 0.1
 _ZN8osmscout18RoutePostprocessor25CrossingWaysPostprocessorD0Ev@Base 0.1
 _ZN8osmscout18RoutePostprocessor25CrossingWaysPostprocessorD1Ev@Base 0.1
 _ZN8osmscout18RoutePostprocessor25CrossingWaysPostprocessorD2Ev@Base 0.1
 _ZN8osmscout18RoutePostprocessor27PostprocessRouteDescriptionERNS_16RouteDescriptionERKNS_14RoutingProfileERNS_8DatabaseESt4listISt10shared_ptrINS0_13PostprocessorEESaISB_EE@Base 0.1
 _ZN8osmscout18RoutePostprocessor28DistanceAndTimePostprocessor7ProcessERKS0_RKNS_14RoutingProfileERNS_16RouteDescriptionERNS_8DatabaseE@Base 0.1
 _ZN8osmscout18RoutePostprocessor28DistanceAndTimePostprocessorC1Ev@Base 0.1
 _ZN8osmscout18RoutePostprocessor28DistanceAndTimePostprocessorC2Ev@Base 0.1
 _ZN8osmscout18RoutePostprocessor28DistanceAndTimePostprocessorD0Ev@Base 0.1
 _ZN8osmscout18RoutePostprocessor28DistanceAndTimePostprocessorD1Ev@Base 0.1
 _ZN8osmscout18RoutePostprocessor28DistanceAndTimePostprocessorD2Ev@Base 0.1
 _ZN8osmscout18RoutePostprocessor29MotorwayJunctionPostprocessor7ProcessERKS0_RKNS_14RoutingProfileERNS_16RouteDescriptionERNS_8DatabaseE@Base 0.1
 _ZN8osmscout18RoutePostprocessor29MotorwayJunctionPostprocessorC1Ev@Base 0.1
 _ZN8osmscout18RoutePostprocessor29MotorwayJunctionPostprocessorC2Ev@Base 0.1
 _ZN8osmscout18RoutePostprocessor29MotorwayJunctionPostprocessorD0Ev@Base 0.1
 _ZN8osmscout18RoutePostprocessor29MotorwayJunctionPostprocessorD1Ev@Base 0.1
 _ZN8osmscout18RoutePostprocessor29MotorwayJunctionPostprocessorD2Ev@Base 0.1
 _ZN8osmscout18RoutePostprocessor7CleanupEv@Base 0.1
 _ZN8osmscout18RoutePostprocessorC1Ev@Base 0.1
 _ZN8osmscout18RoutePostprocessorC2Ev@Base 0.1
 _ZN8osmscout18SplitStringAtSpaceERKSsRSt4listISsSaISsEE@Base 0.1
 _ZN8osmscout18StringListToStringERKSt4listISsSaISsEERKSs@Base 0.1
 _ZN8osmscout18TagBinaryConditionC1EtNS_14BinaryOperatorERKSs@Base 0.1
 _ZN8osmscout18TagBinaryConditionC1EtNS_14BinaryOperatorERKm@Base 0.1
 _ZN8osmscout18TagBinaryConditionC2EtNS_14BinaryOperatorERKSs@Base 0.1
 _ZN8osmscout18TagBinaryConditionC2EtNS_14BinaryOperatorERKm@Base 0.1
 _ZN8osmscout18TagBinaryConditionD0Ev@Base 0.1
 _ZN8osmscout18TagBinaryConditionD1Ev@Base 0.1
 _ZN8osmscout18TagBinaryConditionD2Ev@Base 0.1
 _ZN8osmscout18TagExistsConditionC1Et@Base 0.1
 _ZN8osmscout18TagExistsConditionC2Et@Base 0.1
 _ZN8osmscout18TagExistsConditionD0Ev@Base 0.1
 _ZN8osmscout18TagExistsConditionD1Ev@Base 0.1
 _ZN8osmscout18TagExistsConditionD2Ev@Base 0.1
 _ZN8osmscout19AddressFeatureValue4ReadERNS_11FileScannerE@Base 0.1
 _ZN8osmscout19AddressFeatureValue5WriteERNS_10FileWriterE@Base 0.1
 _ZN8osmscout19AddressFeatureValueD0Ev@Base 0.1
 _ZN8osmscout19AddressFeatureValueD1Ev@Base 0.1
 _ZN8osmscout19AddressFeatureValueD2Ev@Base 0.1
 _ZN8osmscout19AddressFeatureValueaSERKNS_12FeatureValueE@Base 0.1
 _ZN8osmscout19NameAltFeatureValue4ReadERNS_11FileScannerE@Base 0.1
 _ZN8osmscout19NameAltFeatureValue5WriteERNS_10FileWriterE@Base 0.1
 _ZN8osmscout19NameAltFeatureValueD0Ev@Base 0.1
 _ZN8osmscout19NameAltFeatureValueD1Ev@Base 0.1
 _ZN8osmscout19NameAltFeatureValueD2Ev@Base 0.1
 _ZN8osmscout19NameAltFeatureValueaSERKNS_12FeatureValueE@Base 0.1
 _ZN8osmscout19OptimizeWaysLowZoom12ReadTypeDataERNS_11FileScannerERNS0_8TypeDataE@Base 0.1
 _ZN8osmscout19OptimizeWaysLowZoom4OpenERKSt10shared_ptrINS_10TypeConfigEERKSs@Base 0.1
 _ZN8osmscout19OptimizeWaysLowZoom5CloseEv@Base 0.1
 _ZN8osmscout19OptimizeWaysLowZoomC1Ev@Base 0.1
 _ZN8osmscout19OptimizeWaysLowZoomC2Ev@Base 0.1
 _ZN8osmscout19OptimizeWaysLowZoomD0Ev@Base 0.1
 _ZN8osmscout19OptimizeWaysLowZoomD1Ev@Base 0.1
 _ZN8osmscout19OptimizeWaysLowZoomD2Ev@Base 0.1
 _ZN8osmscout19UTF8StringToWStringERKSs@Base 0.1
 _ZN8osmscout19_pd_f_fraction_maskE@Base 0.1
 _ZN8osmscout19_pd_x01_double_maskE@Base 0.1
 _ZN8osmscout19latConversionFactorE@Base 0.1
 _ZN8osmscout19lonConversionFactorE@Base 0.1
 _ZN8osmscout20GetSphericalDistanceEdddd@Base 0.1
 _ZN8osmscout20LocationFeatureValue4ReadERNS_11FileScannerE@Base 0.1
 _ZN8osmscout20LocationFeatureValue5WriteERNS_10FileWriterE@Base 0.1
 _ZN8osmscout20LocationFeatureValueD0Ev@Base 0.1
 _ZN8osmscout20LocationFeatureValueD1Ev@Base 0.1
 _ZN8osmscout20LocationFeatureValueD2Ev@Base 0.1
 _ZN8osmscout20LocationFeatureValueaSERKNS_12FeatureValueE@Base 0.1
 _ZN8osmscout20LocationSearchResult5EntryD1Ev@Base 0.1
 _ZN8osmscout20LocationSearchResult5EntryD2Ev@Base 0.1
 _ZN8osmscout20MaxSpeedFeatureValue4ReadERNS_11FileScannerE@Base 0.1
 _ZN8osmscout20MaxSpeedFeatureValue5WriteERNS_10FileWriterE@Base 0.1
 _ZN8osmscout20MaxSpeedFeatureValueD0Ev@Base 0.1
 _ZN8osmscout20MaxSpeedFeatureValueD1Ev@Base 0.1
 _ZN8osmscout20MaxSpeedFeatureValueD2Ev@Base 0.1
 _ZN8osmscout20MaxSpeedFeatureValueaSERKNS_12FeatureValueE@Base 0.1
 _ZN8osmscout20NumberToStringSignedIlEESsRKT_@Base 0.1
 _ZN8osmscout20OptimizeAreasLowZoom12ReadTypeDataERNS_11FileScannerERNS0_8TypeDataE@Base 0.1
 _ZN8osmscout20OptimizeAreasLowZoom4OpenERKSt10shared_ptrINS_10TypeConfigEERKSs@Base 0.1
 _ZN8osmscout20OptimizeAreasLowZoom5CloseEv@Base 0.1
 _ZN8osmscout20OptimizeAreasLowZoomC1Ev@Base 0.1
 _ZN8osmscout20OptimizeAreasLowZoomC2Ev@Base 0.1
 _ZN8osmscout20OptimizeAreasLowZoomD0Ev@Base 0.1
 _ZN8osmscout20OptimizeAreasLowZoomD1Ev@Base 0.1
 _ZN8osmscout20OptimizeAreasLowZoomD2Ev@Base 0.1
 _ZN8osmscout21_pd_x03FE_double_maskE@Base 0.1
 _ZN8osmscout22AbstractRoutingProfile10SetVehicleENS_7VehicleE@Base 0.1
 _ZN8osmscout22AbstractRoutingProfile17ParametrizeForCarERKNS_10TypeConfigERKSt3mapISsdSt4lessISsESaISt4pairIKSsdEEEd@Base 0.1
 _ZN8osmscout22AbstractRoutingProfile18ParametrizeForFootERKNS_10TypeConfigEd@Base 0.1
 _ZN8osmscout22AbstractRoutingProfile18SetVehicleMaxSpeedEd@Base 0.1
 _ZN8osmscout22AbstractRoutingProfile21ParametrizeForBicycleERKNS_10TypeConfigEd@Base 0.1
 _ZN8osmscout22AbstractRoutingProfile7AddTypeERKSt10shared_ptrINS_8TypeInfoEEd@Base 0.1
 _ZN8osmscout22AbstractRoutingProfileC1ERKSt10shared_ptrINS_10TypeConfigEE@Base 0.1
 _ZN8osmscout22AbstractRoutingProfileC2ERKSt10shared_ptrINS_10TypeConfigEE@Base 0.1
 _ZN8osmscout22AbstractRoutingProfileD0Ev@Base 0.1
 _ZN8osmscout22AbstractRoutingProfileD1Ev@Base 0.1
 _ZN8osmscout22AbstractRoutingProfileD2Ev@Base 0.1
 _ZN8osmscout22AdminLevelFeatureValue4ReadERNS_11FileScannerE@Base 0.1
 _ZN8osmscout22AdminLevelFeatureValue5WriteERNS_10FileWriterE@Base 0.1
 _ZN8osmscout22AdminLevelFeatureValueD0Ev@Base 0.1
 _ZN8osmscout22AdminLevelFeatureValueD1Ev@Base 0.1
 _ZN8osmscout22AdminLevelFeatureValueD2Ev@Base 0.1
 _ZN8osmscout22AdminLevelFeatureValueaSERKNS_12FeatureValueE@Base 0.1
 _ZN8osmscout22DebugDatabaseParameterC1Ev@Base 0.1
 _ZN8osmscout22DebugDatabaseParameterC2Ev@Base 0.1
 _ZN8osmscout22GetEllipsoidalDistanceEdddd@Base 0.1
 _ZN8osmscout22GetEllipsoidalDistanceEddddRdS0_@Base 0.1
 _ZN8osmscout22MagnificationConverter7ConvertERKSsRNS_13MagnificationE@Base 0.1
 _ZN8osmscout22MagnificationConverter7ConvertEmRSs@Base 0.1
 _ZN8osmscout22MagnificationConverterC1Ev@Base 0.1
 _ZN8osmscout22MagnificationConverterC2Ev@Base 0.1
 _ZN8osmscout22NormalizeRelativeAngelEd@Base 0.1
 _ZN8osmscout23AccessRestrictedFeature10InitializeERNS_10TypeConfigE@Base 0.1
 _ZN8osmscout23AccessRestrictedFeature4NAMEE@Base 0.1
 _ZN8osmscout23AccessRestrictedFeatureD0Ev@Base 0.1
 _ZN8osmscout23AccessRestrictedFeatureD1Ev@Base 0.1
 _ZN8osmscout23AccessRestrictedFeatureD2Ev@Base 0.1
 _ZN8osmscout24GetSphericalBearingFinalEdddd@Base 0.1
 _ZN8osmscout24GroupStringListToStringsESt20_List_const_iteratorISsEmmRSt4listIS2_ISsSaISsEESaIS4_EE@Base 0.1
 _ZN8osmscout25FastestPathRoutingProfileC1ERKSt10shared_ptrINS_10TypeConfigEE@Base 0.1
 _ZN8osmscout25FastestPathRoutingProfileC2ERKSt10shared_ptrINS_10TypeConfigEE@Base 0.1
 _ZN8osmscout25FastestPathRoutingProfileD0Ev@Base 0.1
 _ZN8osmscout25FastestPathRoutingProfileD1Ev@Base 0.1
 _ZN8osmscout25FastestPathRoutingProfileD2Ev@Base 0.1
 _ZN8osmscout25ObjectFileRefStreamReader4ReadERNS_13ObjectFileRefE@Base 0.1
 _ZN8osmscout25ObjectFileRefStreamReader5ResetEv@Base 0.1
 _ZN8osmscout25ObjectFileRefStreamReaderC1ERNS_11FileScannerE@Base 0.1
 _ZN8osmscout25ObjectFileRefStreamReaderC2ERNS_11FileScannerE@Base 0.1
 _ZN8osmscout25ObjectFileRefStreamWriter5ResetEv@Base 0.1
 _ZN8osmscout25ObjectFileRefStreamWriter5WriteERKNS_13ObjectFileRefE@Base 0.1
 _ZN8osmscout25ObjectFileRefStreamWriterC1ERNS_10FileWriterE@Base 0.1
 _ZN8osmscout25ObjectFileRefStreamWriterC2ERNS_10FileWriterE@Base 0.1
 _ZN8osmscout26GetSphericalBearingInitialEdddd@Base 0.1
 _ZN8osmscout26ShortestPathRoutingProfileC1ERKSt10shared_ptrINS_10TypeConfigEE@Base 0.1
 _ZN8osmscout26ShortestPathRoutingProfileC2ERKSt10shared_ptrINS_10TypeConfigEE@Base 0.1
 _ZN8osmscout26ShortestPathRoutingProfileD0Ev@Base 0.1
 _ZN8osmscout26ShortestPathRoutingProfileD1Ev@Base 0.1
 _ZN8osmscout26ShortestPathRoutingProfileD2Ev@Base 0.1
 _ZN8osmscout27AddressReverseLookupVisitor5VisitERKNS_11AdminRegionERKNS_8LocationERKNS_7AddressE@Base 0.1
 _ZN8osmscout27AddressReverseLookupVisitor9AddObjectERKNS_13ObjectFileRefE@Base 0.1
 _ZN8osmscout27AddressReverseLookupVisitorC1ERSt4listINS_15LocationService19ReverseLookupResultESaIS3_EE@Base 0.1
 _ZN8osmscout27AddressReverseLookupVisitorC2ERSt4listINS_15LocationService19ReverseLookupResultESaIS3_EE@Base 0.1
 _ZN8osmscout27AddressReverseLookupVisitorD0Ev@Base 0.1
 _ZN8osmscout27AddressReverseLookupVisitorD1Ev@Base 0.1
 _ZN8osmscout27AddressReverseLookupVisitorD2Ev@Base 0.1
 _ZN8osmscout28BytesNeededToAddressFileDataERKSsRh@Base 0.1
 _ZN8osmscout28BytesNeededToAddressFileDataEm@Base 0.1
 _ZN8osmscout28LocationReverseLookupVisitor3LocD1Ev@Base 0.1
 _ZN8osmscout28LocationReverseLookupVisitor3LocD2Ev@Base 0.1
 _ZN8osmscout28LocationReverseLookupVisitor5VisitERKNS_11AdminRegionERKNS_3POIE@Base 0.1
 _ZN8osmscout28LocationReverseLookupVisitor5VisitERKNS_11AdminRegionERKNS_8LocationE@Base 0.1
 _ZN8osmscout28LocationReverseLookupVisitor9AddObjectERKNS_13ObjectFileRefE@Base 0.1
 _ZN8osmscout28LocationReverseLookupVisitorC1ERSt4listINS_15LocationService19ReverseLookupResultESaIS3_EE@Base 0.1
 _ZN8osmscout28LocationReverseLookupVisitorC2ERSt4listINS_15LocationService19ReverseLookupResultESaIS3_EE@Base 0.1
 _ZN8osmscout28LocationReverseLookupVisitorD0Ev@Base 0.1
 _ZN8osmscout28LocationReverseLookupVisitorD1Ev@Base 0.1
 _ZN8osmscout28LocationReverseLookupVisitorD2Ev@Base 0.1
 _ZN8osmscout31AdminRegionReverseLookupVisitor14AddSearchEntryERKNS0_11SearchEntryE@Base 0.1
 _ZN8osmscout31AdminRegionReverseLookupVisitor5VisitERKNS_11AdminRegionE@Base 0.1
 _ZN8osmscout31AdminRegionReverseLookupVisitorC1ERKNS_8DatabaseERSt4listINS_15LocationService19ReverseLookupResultESaIS6_EE@Base 0.1
 _ZN8osmscout31AdminRegionReverseLookupVisitorC2ERKNS_8DatabaseERSt4listINS_15LocationService19ReverseLookupResultESaIS6_EE@Base 0.1
 _ZN8osmscout31AdminRegionReverseLookupVisitorD0Ev@Base 0.1
 _ZN8osmscout31AdminRegionReverseLookupVisitorD1Ev@Base 0.1
 _ZN8osmscout31AdminRegionReverseLookupVisitorD2Ev@Base 0.1
 _ZN8osmscout35CalculateDistancePointToLineSegmentERKNS_8GeoCoordES2_S2_@Base 0.1
 _ZN8osmscout3Log4InfoEv@Base 0.1
 _ZN8osmscout3Log4WarnEv@Base 0.1
 _ZN8osmscout3Log5DebugEv@Base 0.1
 _ZN8osmscout3Log5ErrorEv@Base 0.1
 _ZN8osmscout3Log9SetLoggerEPNS_6LoggerE@Base 0.1
 _ZN8osmscout3LogC1Ev@Base 0.1
 _ZN8osmscout3LogC2Ev@Base 0.1
 _ZN8osmscout3LogD1Ev@Base 0.1
 _ZN8osmscout3LogD2Ev@Base 0.1
 _ZN8osmscout3PowEmm@Base 0.1
 _ZN8osmscout3RefINS_12IntersectionEED1Ev@Base 0.1
 _ZN8osmscout3RefINS_12IntersectionEED2Ev@Base 0.1
 _ZN8osmscout3RefINS_12NumericIndexImE4PageEED1Ev@Base 0.1
 _ZN8osmscout3RefINS_12NumericIndexImE4PageEED2Ev@Base 0.1
 _ZN8osmscout3RefINS_12TagConditionEED1Ev@Base 0.1
 _ZN8osmscout3RefINS_12TagConditionEED2Ev@Base 0.1
 _ZN8osmscout3RefINS_16RouteDescription15NameDescriptionEED1Ev@Base 0.1
 _ZN8osmscout3RefINS_16RouteDescription15NameDescriptionEED2Ev@Base 0.1
 _ZN8osmscout3RefINS_16RouteDescription24MotorwayEnterDescriptionEED1Ev@Base 0.1
 _ZN8osmscout3RefINS_16RouteDescription24MotorwayEnterDescriptionEED2Ev@Base 0.1
 _ZN8osmscout3RefINS_16RouteDescription24MotorwayLeaveDescriptionEED1Ev@Base 0.1
 _ZN8osmscout3RefINS_16RouteDescription24MotorwayLeaveDescriptionEED2Ev@Base 0.1
 _ZN8osmscout3RefINS_3WayEED1Ev@Base 0.1
 _ZN8osmscout3RefINS_3WayEED2Ev@Base 0.1
 _ZN8osmscout3RefINS_3ost5TokenEED1Ev@Base 0.1
 _ZN8osmscout3RefINS_3ost5TokenEED2Ev@Base 0.1
 _ZN8osmscout3RefINS_4AreaEED1Ev@Base 0.1
 _ZN8osmscout3RefINS_4AreaEED2Ev@Base 0.1
 _ZN8osmscout3RefINS_4NodeEED1Ev@Base 0.1
 _ZN8osmscout3RefINS_4NodeEED2Ev@Base 0.1
 _ZN8osmscout3RefINS_7FeatureEED1Ev@Base 0.1
 _ZN8osmscout3RefINS_7FeatureEED2Ev@Base 0.1
 _ZN8osmscout3RefINS_9RouteNodeEED1Ev@Base 0.1
 _ZN8osmscout3RefINS_9RouteNodeEED2Ev@Base 0.1
 _ZN8osmscout3Way13ReadOptimizedERKNS_10TypeConfigERNS_11FileScannerE@Base 0.1
 _ZN8osmscout3Way13SetLayerToMaxEv@Base 0.1
 _ZN8osmscout3Way4ReadERKNS_10TypeConfigERNS_11FileScannerE@Base 0.1
 _ZN8osmscout3WayD1Ev@Base 0.1
 _ZN8osmscout3WayD2Ev@Base 0.1
 _ZN8osmscout3logE@Base 0.1
 _ZN8osmscout3ost10KeywordMap3setEPKci@Base 0.1
 _ZN8osmscout3ost10KeywordMapD0Ev@Base 0.1
 _ZN8osmscout3ost10KeywordMapD1Ev@Base 0.1
 _ZN8osmscout3ost10KeywordMapD2Ev@Base 0.1
 _ZN8osmscout3ost11StartStatesD0Ev@Base 0.1
 _ZN8osmscout3ost11StartStatesD1Ev@Base 0.1
 _ZN8osmscout3ost11StartStatesD2Ev@Base 0.1
 _ZN8osmscout3ost18coco_string_createEPKc@Base 0.1
 _ZN8osmscout3ost18coco_string_createEPKcim@Base 0.1
 _ZN8osmscout3ost18coco_string_deleteERPc@Base 0.1
 _ZN8osmscout3ost5TokenC1Ev@Base 0.1
 _ZN8osmscout3ost5TokenC2Ev@Base 0.1
 _ZN8osmscout3ost5TokenD1Ev@Base 0.1
 _ZN8osmscout3ost5TokenD2Ev@Base 0.1
 _ZN8osmscout3ost6Buffer4PeekEv@Base 0.1
 _ZN8osmscout3ost6Buffer4ReadEv@Base 0.1
 _ZN8osmscout3ost6Buffer6GetPosEv@Base 0.1
 _ZN8osmscout3ost6Buffer6SetPosEm@Base 0.1
 _ZN8osmscout3ost6BufferC1EPKhm@Base 0.1
 _ZN8osmscout3ost6BufferC2EPKhm@Base 0.1
 _ZN8osmscout3ost6BufferD0Ev@Base 0.1
 _ZN8osmscout3ost6BufferD1Ev@Base 0.1
 _ZN8osmscout3ost6BufferD2Ev@Base 0.1
 _ZN8osmscout3ost6Errors5ErrorEiiPKc@Base 0.1
 _ZN8osmscout3ost6Errors6SynErrEiii@Base 0.1
 _ZN8osmscout3ost6Errors7WarningEPKc@Base 0.1
 _ZN8osmscout3ost6Errors7WarningEiiPKc@Base 0.1
 _ZN8osmscout3ost6Errors9ExceptionEPKc@Base 0.1
 _ZN8osmscout3ost6ErrorsC1Ev@Base 0.1
 _ZN8osmscout3ost6ErrorsC2Ev@Base 0.1
 _ZN8osmscout3ost6Parser10ExpectWeakEii@Base 0.1
 _ZN8osmscout3ost6Parser10TAGANDCONDERPNS_12TagConditionE@Base 0.1
 _ZN8osmscout3ost6Parser10TAGBINCONDERPNS_12TagConditionE@Base 0.1
 _ZN8osmscout3ost6Parser10TYPEOPTIONERNS_8TypeInfoE@Base 0.1
 _ZN8osmscout3ost6Parser11TAGBOOLCONDERPNS_12TagConditionE@Base 0.1
 _ZN8osmscout3ost6Parser11TAGISINCONDERKSsRPNS_12TagConditionE@Base 0.1
 _ZN8osmscout3ost6Parser11TAGLESSCONDERKSsRPNS_12TagConditionE@Base 0.1
 _ZN8osmscout3ost6Parser11TYPEOPTIONSERNS_8TypeInfoE@Base 0.1
 _ZN8osmscout3ost6Parser12TAGCONDITIONERPNS_12TagConditionE@Base 0.1
 _ZN8osmscout3ost6Parser13TAGEQUALSCONDERKSsRPNS_12TagConditionE@Base 0.1
 _ZN8osmscout3ost6Parser13TAGEXISTSCONDERPNS_12TagConditionE@Base 0.1
 _ZN8osmscout3ost6Parser13WeakSeparatorEiii@Base 0.1
 _ZN8osmscout3ost6Parser14TAGGREATERCONDERKSsRPNS_12TagConditionE@Base 0.1
 _ZN8osmscout3ost6Parser16TAGLESSEQUALCONDERKSsRPNS_12TagConditionE@Base 0.1
 _ZN8osmscout3ost6Parser16TAGNOTEQUALSCONDERKSsRPNS_12TagConditionE@Base 0.1
 _ZN8osmscout3ost6Parser19TAGGREATEREQUALCONDERKSsRPNS_12TagConditionE@Base 0.1
 _ZN8osmscout3ost6Parser3GetEv@Base 0.1
 _ZN8osmscout3ost6Parser3OSTEv@Base 0.1
 _ZN8osmscout3ost6Parser4PATHERNS_8TypeInfoE@Base 0.1
 _ZN8osmscout3ost6Parser4TYPEEv@Base 0.1
 _ZN8osmscout3ost6Parser4UINTERm@Base 0.1
 _ZN8osmscout3ost6Parser5GRADEEv@Base 0.1
 _ZN8osmscout3ost6Parser5IDENTERSs@Base 0.1
 _ZN8osmscout3ost6Parser5ParseEv@Base 0.1
 _ZN8osmscout3ost6Parser5TYPESEv@Base 0.1
 _ZN8osmscout3ost6Parser6ExpectEi@Base 0.1
 _ZN8osmscout3ost6Parser6GRADESEv@Base 0.1
 _ZN8osmscout3ost6Parser6GROUPSERNS_8TypeInfoE@Base 0.1
 _ZN8osmscout3ost6Parser6STRINGERSs@Base 0.1
 _ZN8osmscout3ost6Parser6SemErrEPKc@Base 0.1
 _ZN8osmscout3ost6Parser6SynErrEi@Base 0.1
 _ZN8osmscout3ost6Parser7FEATUREERNS_8TypeInfoE@Base 0.1
 _ZN8osmscout3ost6Parser7StartOfEi@Base 0.1
 _ZN8osmscout3ost6Parser8MAXSPEEDEv@Base 0.1
 _ZN8osmscout3ost6Parser8TYPEKINDERh@Base 0.1
 _ZN8osmscout3ost6Parser9MAXSPEEDSEv@Base 0.1
 _ZN8osmscout3ost6Parser9TYPEKINDSERh@Base 0.1
 _ZN8osmscout3ost6ParserC1EPNS0_7ScannerERNS_10TypeConfigE@Base 0.1
 _ZN8osmscout3ost6ParserC2EPNS0_7ScannerERNS_10TypeConfigE@Base 0.1
 _ZN8osmscout3ost6ParserD1Ev@Base 0.1
 _ZN8osmscout3ost6ParserD2Ev@Base 0.1
 _ZN8osmscout3ost7Scanner11CreateTokenEv@Base 0.1
 _ZN8osmscout3ost7Scanner17SetScannerBehindTEv@Base 0.1
 _ZN8osmscout3ost7Scanner4InitEv@Base 0.1
 _ZN8osmscout3ost7Scanner4PeekEv@Base 0.1
 _ZN8osmscout3ost7Scanner4ScanEv@Base 0.1
 _ZN8osmscout3ost7Scanner5AddChEv@Base 0.1
 _ZN8osmscout3ost7Scanner6NextChEv@Base 0.1
 _ZN8osmscout3ost7Scanner8Comment0Ev@Base 0.1
 _ZN8osmscout3ost7Scanner8Comment1Ev@Base 0.1
 _ZN8osmscout3ost7Scanner9AppendValEPNS0_5TokenE@Base 0.1
 _ZN8osmscout3ost7Scanner9NextTokenEv@Base 0.1
 _ZN8osmscout3ost7Scanner9ResetPeekEv@Base 0.1
 _ZN8osmscout3ost7ScannerC1EPKhm@Base 0.1
 _ZN8osmscout3ost7ScannerC2EPKhm@Base 0.1
 _ZN8osmscout3ost7ScannerD1Ev@Base 0.1
 _ZN8osmscout3ost7ScannerD2Ev@Base 0.1
 _ZN8osmscout4Area13ReadOptimizedERKNS_10TypeConfigERNS_11FileScannerE@Base 0.1
 _ZN8osmscout4Area4ReadERKNS_10TypeConfigERNS_11FileScannerE@Base 0.1
 _ZN8osmscout4Area4RingD1Ev@Base 0.1
 _ZN8osmscout4Area4RingD2Ev@Base 0.1
 _ZN8osmscout4Area7ReadIdsERNS_11FileScannerEjRSt6vectorImSaImEE@Base 0.1
 _ZN8osmscout4Node11SetFeaturesERKNS_18FeatureValueBufferE@Base 0.1
 _ZN8osmscout4Node4ReadERKNS_10TypeConfigERNS_11FileScannerE@Base 0.1
 _ZN8osmscout4Node7SetTypeERKSt10shared_ptrINS_8TypeInfoEE@Base 0.1
 _ZN8osmscout4Node9SetCoordsERKNS_8GeoCoordE@Base 0.1
 _ZN8osmscout4PathC1ENS_13ObjectFileRefEm@Base 0.1
 _ZN8osmscout4PathC1ENS_13ObjectFileRefEmb@Base 0.1
 _ZN8osmscout4PathC1ERKS0_@Base 0.1
 _ZN8osmscout4PathC2ENS_13ObjectFileRefEm@Base 0.1
 _ZN8osmscout4PathC2ENS_13ObjectFileRefEmb@Base 0.1
 _ZN8osmscout4PathC2ERKS0_@Base 0.1
 _ZN8osmscout4PathD0Ev@Base 0.1
 _ZN8osmscout4PathD1Ev@Base 0.1
 _ZN8osmscout4PathD2Ev@Base 0.1
 _ZN8osmscout4SRTM12srtmFilenameEii@Base 0.1
 _ZN8osmscout4SRTM16heightAtLocationEdd@Base 0.1
 _ZN8osmscout4SRTM4rowsE@Base 0.1
 _ZN8osmscout4SRTM7columnsE@Base 0.1
 _ZN8osmscout4SRTM9patchSizeE@Base 0.1
 _ZN8osmscout4SRTMC1ERKSs@Base 0.1
 _ZN8osmscout4SRTMC2ERKSs@Base 0.1
 _ZN8osmscout4SRTMD0Ev@Base 0.1
 _ZN8osmscout4SRTMD1Ev@Base 0.1
 _ZN8osmscout4SRTMD2Ev@Base 0.1
 _ZN8osmscout5CacheImNS_13AreaAreaIndex9IndexCellEmE10ValueSizerD0Ev@Base 0.1
 _ZN8osmscout5CacheImNS_13AreaAreaIndex9IndexCellEmE10ValueSizerD1Ev@Base 0.1
 _ZN8osmscout5CacheImNS_13AreaAreaIndex9IndexCellEmE10ValueSizerD2Ev@Base 0.1
 _ZN8osmscout5CacheImNS_3RefINS_12IntersectionEEEmED1Ev@Base 0.1
 _ZN8osmscout5CacheImNS_3RefINS_12IntersectionEEEmED2Ev@Base 0.1
 _ZN8osmscout5CacheImNS_3RefINS_12NumericIndexImE4PageEEEmE10ValueSizerD0Ev@Base 0.1
 _ZN8osmscout5CacheImNS_3RefINS_12NumericIndexImE4PageEEEmE10ValueSizerD1Ev@Base 0.1
 _ZN8osmscout5CacheImNS_3RefINS_12NumericIndexImE4PageEEEmE10ValueSizerD2Ev@Base 0.1
 _ZN8osmscout5CacheImNS_3RefINS_12NumericIndexImE4PageEEEmED1Ev@Base 0.1
 _ZN8osmscout5CacheImNS_3RefINS_12NumericIndexImE4PageEEEmED2Ev@Base 0.1
 _ZN8osmscout5CacheImNS_3RefINS_3WayEEEmE10ValueSizerD0Ev@Base 0.1
 _ZN8osmscout5CacheImNS_3RefINS_3WayEEEmE10ValueSizerD1Ev@Base 0.1
 _ZN8osmscout5CacheImNS_3RefINS_3WayEEEmE10ValueSizerD2Ev@Base 0.1
 _ZN8osmscout5CacheImNS_3RefINS_3WayEEEmE8SetEntryERKNS4_10CacheEntryE@Base 0.1
 _ZN8osmscout5CacheImNS_3RefINS_3WayEEEmED1Ev@Base 0.1
 _ZN8osmscout5CacheImNS_3RefINS_3WayEEEmED2Ev@Base 0.1
 _ZN8osmscout5CacheImNS_3RefINS_4AreaEEEmE10ValueSizerD0Ev@Base 0.1
 _ZN8osmscout5CacheImNS_3RefINS_4AreaEEEmE10ValueSizerD1Ev@Base 0.1
 _ZN8osmscout5CacheImNS_3RefINS_4AreaEEEmE10ValueSizerD2Ev@Base 0.1
 _ZN8osmscout5CacheImNS_3RefINS_4AreaEEEmE8SetEntryERKNS4_10CacheEntryE@Base 0.1
 _ZN8osmscout5CacheImNS_3RefINS_4AreaEEEmED1Ev@Base 0.1
 _ZN8osmscout5CacheImNS_3RefINS_4AreaEEEmED2Ev@Base 0.1
 _ZN8osmscout5CacheImNS_3RefINS_4NodeEEEmE10ValueSizerD0Ev@Base 0.1
 _ZN8osmscout5CacheImNS_3RefINS_4NodeEEEmE10ValueSizerD1Ev@Base 0.1
 _ZN8osmscout5CacheImNS_3RefINS_4NodeEEEmE10ValueSizerD2Ev@Base 0.1
 _ZN8osmscout5CacheImNS_3RefINS_4NodeEEEmE8SetEntryERKNS4_10CacheEntryE@Base 0.1
 _ZN8osmscout5CacheImNS_3RefINS_4NodeEEEmED1Ev@Base 0.1
 _ZN8osmscout5CacheImNS_3RefINS_4NodeEEEmED2Ev@Base 0.1
 _ZN8osmscout5CacheImNS_3RefINS_9RouteNodeEEEmE10ValueSizerD0Ev@Base 0.1
 _ZN8osmscout5CacheImNS_3RefINS_9RouteNodeEEEmE10ValueSizerD1Ev@Base 0.1
 _ZN8osmscout5CacheImNS_3RefINS_9RouteNodeEEEmE10ValueSizerD2Ev@Base 0.1
 _ZN8osmscout5CacheImNS_3RefINS_9RouteNodeEEEmED1Ev@Base 0.1
 _ZN8osmscout5CacheImNS_3RefINS_9RouteNodeEEEmED2Ev@Base 0.1
 _ZN8osmscout5Color3REDE@Base 0.1
 _ZN8osmscout5Color4BLUEE@Base 0.1
 _ZN8osmscout5Color5BLACKE@Base 0.1
 _ZN8osmscout5Color5GREENE@Base 0.1
 _ZN8osmscout5Color5WHITEE@Base 0.1
 _ZN8osmscout5_pd_1E@Base 0.1
 _ZN8osmscout5_pd_2E@Base 0.1
 _ZN8osmscout6GeoBox3SetERKNS_8GeoCoordES3_@Base 0.1
 _ZN8osmscout6GeoBox7IncludeERKS0_@Base 0.1
 _ZN8osmscout6GeoBoxC1ERKNS_8GeoCoordES3_@Base 0.1
 _ZN8osmscout6GeoBoxC1ERKS0_@Base 0.1
 _ZN8osmscout6GeoBoxC1Ev@Base 0.1
 _ZN8osmscout6GeoBoxC2ERKNS_8GeoCoordES3_@Base 0.1
 _ZN8osmscout6GeoBoxC2ERKS0_@Base 0.1
 _ZN8osmscout6GeoBoxC2Ev@Base 0.1
 _ZN8osmscout6Logger11DestinationD0Ev@Base 0.1
 _ZN8osmscout6Logger11DestinationD1Ev@Base 0.1
 _ZN8osmscout6Logger11DestinationD2Ev@Base 0.1
 _ZN8osmscout6Logger4InfoEv@Base 0.1
 _ZN8osmscout6Logger4LineC1ERNS0_11DestinationE@Base 0.1
 _ZN8osmscout6Logger4LineC2ERNS0_11DestinationE@Base 0.1
 _ZN8osmscout6Logger4LineD0Ev@Base 0.1
 _ZN8osmscout6Logger4LineD1Ev@Base 0.1
 _ZN8osmscout6Logger4LineD2Ev@Base 0.1
 _ZN8osmscout6Logger4LinelsEd@Base 0.1
 _ZN8osmscout6Logger4LinelsEf@Base 0.1
 _ZN8osmscout6Logger4WarnEv@Base 0.1
 _ZN8osmscout6Logger5DebugEv@Base 0.1
 _ZN8osmscout6Logger5ErrorEv@Base 0.1
 _ZN8osmscout6LoggerC1Ev@Base 0.1
 _ZN8osmscout6LoggerC2Ev@Base 0.1
 _ZN8osmscout6LoggerD0Ev@Base 0.1
 _ZN8osmscout6LoggerD1Ev@Base 0.1
 _ZN8osmscout6LoggerD2Ev@Base 0.1
 _ZN8osmscout7BreakerC1Ev@Base 0.1
 _ZN8osmscout7BreakerC2Ev@Base 0.1
 _ZN8osmscout7BreakerD0Ev@Base 0.1
 _ZN8osmscout7BreakerD1Ev@Base 0.1
 _ZN8osmscout7BreakerD2Ev@Base 0.1
 _ZN8osmscout7Feature13AllocateValueEPv@Base 0.1
 _ZN8osmscout7Feature13RegisterLabelERKSsm@Base 0.1
 _ZN8osmscout7FeatureC1Ev@Base 0.1
 _ZN8osmscout7FeatureC2Ev@Base 0.1
 _ZN8osmscout7FeatureD0Ev@Base 0.1
 _ZN8osmscout7FeatureD1Ev@Base 0.1
 _ZN8osmscout7FeatureD2Ev@Base 0.1
 _ZN8osmscout7TagInfo5SetIdEt@Base 0.1
 _ZN8osmscout7TagInfoC1ERKSs@Base 0.1
 _ZN8osmscout7TagInfoC1Ev@Base 0.1
 _ZN8osmscout7TagInfoC2ERKSs@Base 0.1
 _ZN8osmscout7TagInfoC2Ev@Base 0.1
 _ZN8osmscout7TypeSetC1ERKS0_@Base 0.1
 _ZN8osmscout7TypeSetC2ERKS0_@Base 0.1
 _ZN8osmscout7_pd_0_5E@Base 0.1
 _ZN8osmscout8DataFileINS_12IntersectionEE5CloseEv@Base 0.1
 _ZN8osmscout8DataFileINS_12IntersectionEEC1ERKSsm@Base 0.1
 _ZN8osmscout8DataFileINS_12IntersectionEEC2ERKSsm@Base 0.1
 _ZN8osmscout8DataFileINS_12IntersectionEED0Ev@Base 0.1
 _ZN8osmscout8DataFileINS_12IntersectionEED1Ev@Base 0.1
 _ZN8osmscout8DataFileINS_12IntersectionEED2Ev@Base 0.1
 _ZN8osmscout8DataFileINS_3WayEE19DataCacheValueSizerD0Ev@Base 0.1
 _ZN8osmscout8DataFileINS_3WayEE19DataCacheValueSizerD1Ev@Base 0.1
 _ZN8osmscout8DataFileINS_3WayEE19DataCacheValueSizerD2Ev@Base 0.1
 _ZN8osmscout8DataFileINS_3WayEE5CloseEv@Base 0.1
 _ZN8osmscout8DataFileINS_3WayEEC1ERKSsm@Base 0.1
 _ZN8osmscout8DataFileINS_3WayEEC2ERKSsm@Base 0.1
 _ZN8osmscout8DataFileINS_3WayEED0Ev@Base 0.1
 _ZN8osmscout8DataFileINS_3WayEED1Ev@Base 0.1
 _ZN8osmscout8DataFileINS_3WayEED2Ev@Base 0.1
 _ZN8osmscout8DataFileINS_4AreaEE19DataCacheValueSizerD0Ev@Base 0.1
 _ZN8osmscout8DataFileINS_4AreaEE19DataCacheValueSizerD1Ev@Base 0.1
 _ZN8osmscout8DataFileINS_4AreaEE19DataCacheValueSizerD2Ev@Base 0.1
 _ZN8osmscout8DataFileINS_4AreaEE5CloseEv@Base 0.1
 _ZN8osmscout8DataFileINS_4AreaEEC1ERKSsm@Base 0.1
 _ZN8osmscout8DataFileINS_4AreaEEC2ERKSsm@Base 0.1
 _ZN8osmscout8DataFileINS_4AreaEED0Ev@Base 0.1
 _ZN8osmscout8DataFileINS_4AreaEED1Ev@Base 0.1
 _ZN8osmscout8DataFileINS_4AreaEED2Ev@Base 0.1
 _ZN8osmscout8DataFileINS_4NodeEE19DataCacheValueSizerD0Ev@Base 0.1
 _ZN8osmscout8DataFileINS_4NodeEE19DataCacheValueSizerD1Ev@Base 0.1
 _ZN8osmscout8DataFileINS_4NodeEE19DataCacheValueSizerD2Ev@Base 0.1
 _ZN8osmscout8DataFileINS_4NodeEE5CloseEv@Base 0.1
 _ZN8osmscout8DataFileINS_4NodeEEC1ERKSsm@Base 0.1
 _ZN8osmscout8DataFileINS_4NodeEEC2ERKSsm@Base 0.1
 _ZN8osmscout8DataFileINS_4NodeEED0Ev@Base 0.1
 _ZN8osmscout8DataFileINS_4NodeEED1Ev@Base 0.1
 _ZN8osmscout8DataFileINS_4NodeEED2Ev@Base 0.1
 _ZN8osmscout8DataFileINS_9RouteNodeEE19DataCacheValueSizerD0Ev@Base 0.1
 _ZN8osmscout8DataFileINS_9RouteNodeEE19DataCacheValueSizerD1Ev@Base 0.1
 _ZN8osmscout8DataFileINS_9RouteNodeEE19DataCacheValueSizerD2Ev@Base 0.1
 _ZN8osmscout8DataFileINS_9RouteNodeEE5CloseEv@Base 0.1
 _ZN8osmscout8DataFileINS_9RouteNodeEEC1ERKSsm@Base 0.1
 _ZN8osmscout8DataFileINS_9RouteNodeEEC2ERKSsm@Base 0.1
 _ZN8osmscout8DataFileINS_9RouteNodeEED0Ev@Base 0.1
 _ZN8osmscout8DataFileINS_9RouteNodeEED1Ev@Base 0.1
 _ZN8osmscout8DataFileINS_9RouteNodeEED2Ev@Base 0.1
 _ZN8osmscout8Database10FlushCacheEv@Base 0.1
 _ZN8osmscout8Database14DumpStatisticsEv@Base 0.1
 _ZN8osmscout8Database4OpenERKSs@Base 0.1
 _ZN8osmscout8Database5CloseEv@Base 0.1
 _ZN8osmscout8DatabaseC1ERKNS_17DatabaseParameterE@Base 0.1
 _ZN8osmscout8DatabaseC2ERKNS_17DatabaseParameterE@Base 0.1
 _ZN8osmscout8DatabaseD0Ev@Base 0.1
 _ZN8osmscout8DatabaseD1Ev@Base 0.1
 _ZN8osmscout8DatabaseD2Ev@Base 0.1
 _ZN8osmscout8GeoCoord5ParseERKSsRS0_@Base 0.1
 _ZN8osmscout8LOGCOEFFE@Base 0.1
 _ZN8osmscout8Progress11SetProgressEdd@Base 0.1
 _ZN8osmscout8Progress14SetOutputDebugEb@Base 0.1
 _ZN8osmscout8Progress4InfoERKSs@Base 0.1
 _ZN8osmscout8Progress5DebugERKSs@Base 0.1
 _ZN8osmscout8Progress5ErrorERKSs@Base 0.1
 _ZN8osmscout8Progress7SetStepERKSs@Base 0.1
 _ZN8osmscout8Progress7WarningERKSs@Base 0.1
 _ZN8osmscout8Progress9SetActionERKSs@Base 0.1
 _ZN8osmscout8ProgressC1Ev@Base 0.1
 _ZN8osmscout8ProgressC2Ev@Base 0.1
 _ZN8osmscout8ProgressD0Ev@Base 0.1
 _ZN8osmscout8ProgressD1Ev@Base 0.1
 _ZN8osmscout8ProgressD2Ev@Base 0.1
 _ZN8osmscout8ScanCellC1Eii@Base 0.1
 _ZN8osmscout8ScanCellC2Eii@Base 0.1
 _ZN8osmscout8TypeInfo10AddFeatureERKNS_3RefINS_7FeatureEEE@Base 0.1
 _ZN8osmscout8TypeInfo12AddConditionEhPNS_12TagConditionE@Base 0.1
 _ZN8osmscout8TypeInfo7SetTypeERKSs@Base 0.1
 _ZN8osmscout8TypeInfo8AddGroupERKSs@Base 0.1
 _ZN8osmscout8TypeInfo8SetIndexEm@Base 0.1
 _ZN8osmscout8TypeInfo8SetWayIdEt@Base 0.1
 _ZN8osmscout8TypeInfo9SetAreaIdEt@Base 0.1
 _ZN8osmscout8TypeInfo9SetNodeIdEt@Base 0.1
 _ZN8osmscout8TypeInfoC1ERKS0_@Base 0.1
 _ZN8osmscout8TypeInfoC1Ev@Base 0.1
 _ZN8osmscout8TypeInfoC2ERKS0_@Base 0.1
 _ZN8osmscout8TypeInfoC2Ev@Base 0.1
 _ZN8osmscout8TypeInfoD0Ev@Base 0.1
 _ZN8osmscout8TypeInfoD1Ev@Base 0.1
 _ZN8osmscout8TypeInfoD2Ev@Base 0.1
 _ZN8osmscout8_pd_0_66E@Base 0.1
 _ZN8osmscout8_pd_0_87E@Base 0.1
 _ZN8osmscout8_pd_1022E@Base 0.1
 _ZN8osmscout8_pd_1_32E@Base 0.1
 _ZN8osmscout8_pd_1_74E@Base 0.1
 _ZN8osmscout8_pd_2OPIE@Base 0.1
 _ZN8osmscout8_pd_PIO2E@Base 0.1
 _ZN8osmscout9NumberSet4DataD0Ev@Base 0.1
 _ZN8osmscout9NumberSet4DataD1Ev@Base 0.1
 _ZN8osmscout9NumberSet4DataD2Ev@Base 0.1
 _ZN8osmscout9NumberSet4LeafC1Ev@Base 0.1
 _ZN8osmscout9NumberSet4LeafC2Ev@Base 0.1
 _ZN8osmscout9NumberSet4LeafD0Ev@Base 0.1
 _ZN8osmscout9NumberSet4LeafD1Ev@Base 0.1
 _ZN8osmscout9NumberSet4LeafD2Ev@Base 0.1
 _ZN8osmscout9NumberSet4RefsC1Ev@Base 0.1
 _ZN8osmscout9NumberSet4RefsC2Ev@Base 0.1
 _ZN8osmscout9NumberSet4RefsD0Ev@Base 0.1
 _ZN8osmscout9NumberSet4RefsD1Ev@Base 0.1
 _ZN8osmscout9NumberSet4RefsD2Ev@Base 0.1
 _ZN8osmscout9NumberSet6InsertEm@Base 0.1
 _ZN8osmscout9NumberSetC1Ev@Base 0.1
 _ZN8osmscout9NumberSetC2Ev@Base 0.1
 _ZN8osmscout9NumberSetD1Ev@Base 0.1
 _ZN8osmscout9NumberSetD2Ev@Base 0.1
 _ZN8osmscout9RouteData10RouteEntry10SetObjectsESt6vectorINS_13ObjectFileRefESaIS3_EE@Base 0.1
 _ZN8osmscout9RouteData10RouteEntryC1EmmRKNS_13ObjectFileRefEm@Base 0.1
 _ZN8osmscout9RouteData10RouteEntryC2EmmRKNS_13ObjectFileRefEm@Base 0.1
 _ZN8osmscout9RouteData5ClearEv@Base 0.1
 _ZN8osmscout9RouteData8AddEntryEmmRKNS_13ObjectFileRefEm@Base 0.1
 _ZN8osmscout9RouteDataC1Ev@Base 0.1
 _ZN8osmscout9RouteDataC2Ev@Base 0.1
 _ZN8osmscout9RouteNode4ReadERKNS_10TypeConfigERNS_11FileScannerE@Base 0.1
 _ZN8osmscout9RouteNode4ReadERNS_11FileScannerE@Base 0.1
 _ZN8osmscout9RouteNode9AddObjectERKNS_13ObjectFileRefEthh@Base 0.1
 _ZN8osmscout9StopClock4StopEv@Base 0.1
 _ZN8osmscout9StopClockC1Ev@Base 0.1
 _ZN8osmscout9StopClockC2Ev@Base 0.1
 _ZN8osmscout9StopClockD0Ev@Base 0.1
 _ZN8osmscout9StopClockD1Ev@Base 0.1
 _ZN8osmscout9StopClockD2Ev@Base 0.1
 _ZN8osmscout9_pd_1_expE@Base 0.1
 _ZN8osmscoutlsERSoRKNS_9StopClockE@Base 0.1
 _ZNK8osmscout10EleFeature12GetValueSizeEv@Base 0.1
 _ZNK8osmscout10EleFeature5ParseERNS_8ProgressERKNS_10TypeConfigERKNS_15FeatureInstanceERKNS_12ObjectOSMRefERKSt13unordered_mapItSsSt4hashItESt8equal_toItESaISt4pairIKtSsEEERNS_18FeatureValueBufferE@Base 0.1
 _ZNK8osmscout10EleFeature7GetNameEv@Base 0.1
 _ZNK8osmscout10FileWriter11GetFilenameEv@Base 0.1
 _ZNK8osmscout10NodeUseMap16GetNodeUsedCountEv@Base 0.1
 _ZNK8osmscout10NodeUseMap22IsNodeUsedAtLeastTwiceEm@Base 0.1
 _ZNK8osmscout10POIService13GetPOIsInAreaERKNS_6GeoBoxERKNS_7TypeSetERSt6vectorINS_3RefINS_4NodeEEESaISA_EES6_RS7_INS8_INS_3WayEEESaISF_EES6_RS7_INS8_INS_4AreaEEESaISK_EE@Base 0.1
 _ZNK8osmscout10POIService13GetWaysInAreaERKNS_6GeoBoxERKNS_7TypeSetERSt6vectorINS_3RefINS_3WayEEESaISA_EE@Base 0.1
 _ZNK8osmscout10POIService14GetAreasInAreaERKNS_6GeoBoxERKNS_7TypeSetERSt6vectorINS_3RefINS_4AreaEEESaISA_EE@Base 0.1
 _ZNK8osmscout10POIService14GetNodesInAreaERKNS_6GeoBoxERKNS_7TypeSetERSt6vectorINS_3RefINS_4NodeEEESaISA_EE@Base 0.1
 _ZNK8osmscout10RefFeature12GetValueSizeEv@Base 0.1
 _ZNK8osmscout10RefFeature5ParseERNS_8ProgressERKNS_10TypeConfigERKNS_15FeatureInstanceERKNS_12ObjectOSMRefERKSt13unordered_mapItSsSt4hashItESt8equal_toItESaISt4pairIKtSsEEERNS_18FeatureValueBufferE@Base 0.1
 _ZNK8osmscout10RefFeature7GetNameEv@Base 0.1
 _ZNK8osmscout10TypeConfig10GetFeatureERKSs@Base 0.1
 _ZNK8osmscout10TypeConfig11GetNodeTypeERKSt13unordered_mapItSsSt4hashItESt8equal_toItESaISt4pairIKtSsEEE@Base 0.1
 _ZNK8osmscout10TypeConfig11GetTypeInfoERKSs@Base 0.1
 _ZNK8osmscout10TypeConfig12GetMaxTypeIdEv@Base 0.1
 _ZNK8osmscout10TypeConfig12IsNameAltTagEtRj@Base 0.1
 _ZNK8osmscout10TypeConfig14GetWayAreaTypeERKSt13unordered_mapItSsSt4hashItESt8equal_toItESaISt4pairIKtSsEEERSt10shared_ptrINS_8TypeInfoEESG_@Base 0.1
 _ZNK8osmscout10TypeConfig15GetRelationTypeERKSt13unordered_mapItSsSt4hashItESt8equal_toItESaISt4pairIKtSsEEE@Base 0.1
 _ZNK8osmscout10TypeConfig15StoreToDataFileERKSs@Base 0.1
 _ZNK8osmscout10TypeConfig18GetGradeForSurfaceERKSsRm@Base 0.1
 _ZNK8osmscout10TypeConfig20GetMaxSpeedFromAliasERKSsRh@Base 0.1
 _ZNK8osmscout10TypeConfig8GetTagIdEPKc@Base 0.1
 _ZNK8osmscout10TypeConfig9IsNameTagEtRj@Base 0.1
 _ZNK8osmscout10WaterIndex10GetRegionsEddddRKNS_13MagnificationERSt4listINS_10GroundTileESaIS5_EE@Base 0.1
 _ZNK8osmscout11AdminRegion5MatchERKNS_13ObjectFileRefE@Base 0.1
 _ZNK8osmscout11FileScanner11GetFilenameEv@Base 0.1
 _ZNK8osmscout11FileScanner5IsEOFEv@Base 0.1
 _ZNK8osmscout11FileScanner6GetPosERm@Base 0.1
 _ZNK8osmscout11NameFeature12GetValueSizeEv@Base 0.1
 _ZNK8osmscout11NameFeature5ParseERNS_8ProgressERKNS_10TypeConfigERKNS_15FeatureInstanceERKNS_12ObjectOSMRefERKSt13unordered_mapItSsSt4hashItESt8equal_toItESaISt4pairIKtSsEEERNS_18FeatureValueBufferE@Base 0.1
 _ZNK8osmscout11NameFeature7GetNameEv@Base 0.1
 _ZNK8osmscout12AreaWayIndex10GetOffsetsERKNS0_8TypeDataEddddmRSt13unordered_setImSt4hashImESt8equal_toImESaImEEmRb@Base 0.1
 _ZNK8osmscout12AreaWayIndex10GetOffsetsEddddRKSt6vectorINS_7TypeSetESaIS2_EEmRS1_ImSaImEE@Base 0.1
 _ZNK8osmscout12DummyBreaker9IsAbortedEv@Base 0.1
 _ZNK8osmscout12FeatureValue8GetLabelEv@Base 0.1
 _ZNK8osmscout12FeatureValueneERKS0_@Base 0.1
 _ZNK8osmscout12GradeFeature12GetValueSizeEv@Base 0.1
 _ZNK8osmscout12GradeFeature5ParseERNS_8ProgressERKNS_10TypeConfigERKNS_15FeatureInstanceERKNS_12ObjectOSMRefERKSt13unordered_mapItSsSt4hashItESt8equal_toItESaISt4pairIKtSsEEERNS_18FeatureValueBufferE@Base 0.1
 _ZNK8osmscout12GradeFeature7GetNameEv@Base 0.1
 _ZNK8osmscout12LayerFeature12GetValueSizeEv@Base 0.1
 _ZNK8osmscout12LayerFeature5ParseERNS_8ProgressERKNS_10TypeConfigERKNS_15FeatureInstanceERKNS_12ObjectOSMRefERKSt13unordered_mapItSsSt4hashItESt8equal_toItESaISt4pairIKtSsEEERNS_18FeatureValueBufferE@Base 0.1
 _ZNK8osmscout12LayerFeature7GetNameEv@Base 0.1
 _ZNK8osmscout12NumericIndexImE14DumpStatisticsEv@Base 0.1
 _ZNK8osmscout12NumericIndexImE27NumericIndexCacheValueSizer7GetSizeERKNS_3RefINS1_4PageEEE@Base 0.1
 _ZNK8osmscout12NumericIndexImE8ReadPageEmRNS_3RefINS1_4PageEEE@Base 0.1
 _ZNK8osmscout12NumericIndexImE9GetOffsetERKmRm@Base 0.1
 _ZNK8osmscout12ObjectOSMRef11GetTypeNameEv@Base 0.1
 _ZNK8osmscout12ObjectOSMRef7GetNameEv@Base 0.1
 _ZNK8osmscout12TransPolygon14GetBoundingBoxERdS1_S1_S1_@Base 0.1
 _ZNK8osmscout12TransPolygon14GetCenterPixelERdS1_@Base 0.1
 _ZNK8osmscout12WidthFeature12GetValueSizeEv@Base 0.1
 _ZNK8osmscout12WidthFeature5ParseERNS_8ProgressERKNS_10TypeConfigERKNS_15FeatureInstanceERKNS_12ObjectOSMRefERKSt13unordered_mapItSsSt4hashItESt8equal_toItESaISt4pairIKtSsEEERNS_18FeatureValueBufferE@Base 0.1
 _ZNK8osmscout12WidthFeature7GetNameEv@Base 0.1
 _ZNK8osmscout13AccessFeature12GetValueSizeEv@Base 0.1
 _ZNK8osmscout13AccessFeature5ParseERNS_8ProgressERKNS_10TypeConfigERKNS_15FeatureInstanceERKNS_12ObjectOSMRefERKSt13unordered_mapItSsSt4hashItESt8equal_toItESaISt4pairIKtSsEEERNS_18FeatureValueBufferE@Base 0.1
 _ZNK8osmscout13AccessFeature7GetNameEv@Base 0.1
 _ZNK8osmscout13AreaAreaIndex10GetOffsetsERKSt10shared_ptrINS_10TypeConfigEEddddmRKNS_7TypeSetEmRSt6vectorImSaImEE@Base 0.1
 _ZNK8osmscout13AreaAreaIndex12GetIndexCellERKNS_10TypeConfigEjmRSt14_List_iteratorINS_5CacheImNS0_9IndexCellEmE10CacheEntryEE@Base 0.1
 _ZNK8osmscout13AreaAreaIndex20IndexCacheValueSizer7GetSizeERKNS0_9IndexCellE@Base 0.1
 _ZNK8osmscout13AreaNodeIndex10GetOffsetsERKNS0_8TypeDataEddddmRSt6vectorImSaImEEmRb@Base 0.1
 _ZNK8osmscout13AreaNodeIndex10GetOffsetsEddddRKNS_7TypeSetEmRSt6vectorImSaImEE@Base 0.1
 _ZNK8osmscout13BridgeFeature12GetValueSizeEv@Base 0.1
 _ZNK8osmscout13BridgeFeature5ParseERNS_8ProgressERKNS_10TypeConfigERKNS_15FeatureInstanceERKNS_12ObjectOSMRefERKSt13unordered_mapItSsSt4hashItESt8equal_toItESaISt4pairIKtSsEEERNS_18FeatureValueBufferE@Base 0.1
 _ZNK8osmscout13BridgeFeature7GetNameEv@Base 0.1
 _ZNK8osmscout13CoordDataFile11GetFilenameEv@Base 0.1
 _ZNK8osmscout13CoordDataFile3GetERSt3setIlSt4lessIlESaIlEERSt13unordered_mapIlNS0_10CoordEntryESt4hashIlESt8equal_toIlESaISt4pairIKlS8_EEE@Base 0.1
 _ZNK8osmscout13DebugDatabase13GetTypeConfigEv@Base 0.1
 _ZNK8osmscout13DebugDatabase6IsOpenEv@Base 0.1
 _ZNK8osmscout13DebugDatabase9GetCoordsERSt3setIlSt4lessIlESaIlEERSt13unordered_mapIlNS_13CoordDataFile10CoordEntryESt4hashIlESt8equal_toIlESaISt4pairIKlS9_EEE@Base 0.1
 _ZNK8osmscout13LocationIndex15LoadAdminRegionERNS_11FileScannerERNS_11AdminRegionE@Base 0.1
 _ZNK8osmscout13LocationIndex17VisitAdminRegionsERNS_18AdminRegionVisitorE@Base 0.1
 _ZNK8osmscout13LocationIndex18VisitRegionEntriesERNS_11FileScannerERNS_18AdminRegionVisitorE@Base 0.1
 _ZNK8osmscout13LocationIndex19IsRegionIgnoreTokenERKSs@Base 0.1
 _ZNK8osmscout13LocationIndex19LoadRegionDataEntryERNS_11FileScannerERKNS_11AdminRegionERNS_15LocationVisitorERb@Base 0.1
 _ZNK8osmscout13LocationIndex21IsLocationIgnoreTokenERKSs@Base 0.1
 _ZNK8osmscout13LocationIndex22VisitLocationAddressesERKNS_11AdminRegionERKNS_8LocationERNS_14AddressVisitorE@Base 0.1
 _ZNK8osmscout13LocationIndex25VisitAdminRegionLocationsERKNS_11AdminRegionERNS_15LocationVisitorEb@Base 0.1
 _ZNK8osmscout13LocationIndex26VisitRegionLocationEntriesERNS_11FileScannerERNS_15LocationVisitorEbRb@Base 0.1
 _ZNK8osmscout13LocationIndex27ResolveAdminRegionHierachieERKSt10shared_ptrINS_11AdminRegionEERSt3mapImS3_St4lessImESaISt4pairIKmS3_EEE@Base 0.1
 _ZNK8osmscout13LocationIndex27VisitLocationAddressEntriesERNS_11FileScannerERKNS_11AdminRegionERKNS_8LocationERNS_14AddressVisitorERb@Base 0.1
 _ZNK8osmscout13LocationIndex4ReadERNS_11FileScannerERNS_13ObjectFileRefE@Base 0.1
 _ZNK8osmscout13ObjectFileRef11GetTypeNameEv@Base 0.1
 _ZNK8osmscout13ObjectFileRef7GetNameEv@Base 0.1
 _ZNK8osmscout13TunnelFeature12GetValueSizeEv@Base 0.1
 _ZNK8osmscout13TunnelFeature5ParseERNS_8ProgressERKNS_10TypeConfigERKNS_15FeatureInstanceERKNS_12ObjectOSMRefERKSt13unordered_mapItSsSt4hashItESt8equal_toItESaISt4pairIKtSsEEERNS_18FeatureValueBufferE@Base 0.1
 _ZNK8osmscout13TunnelFeature7GetNameEv@Base 0.1
 _ZNK8osmscout14AddressFeature12GetValueSizeEv@Base 0.1
 _ZNK8osmscout14AddressFeature5ParseERNS_8ProgressERKNS_10TypeConfigERKNS_15FeatureInstanceERKNS_12ObjectOSMRefERKSt13unordered_mapItSsSt4hashItESt8equal_toItESaISt4pairIKtSsEEERNS_18FeatureValueBufferE@Base 0.1
 _ZNK8osmscout14AddressFeature7GetNameEv@Base 0.1
 _ZNK8osmscout14NameAltFeature12GetValueSizeEv@Base 0.1
 _ZNK8osmscout14NameAltFeature5ParseERNS_8ProgressERKNS_10TypeConfigERKNS_15FeatureInstanceERKNS_12ObjectOSMRefERKSt13unordered_mapItSsSt4hashItESt8equal_toItESaISt4pairIKtSsEEERNS_18FeatureValueBufferE@Base 0.1
 _ZNK8osmscout14NameAltFeature7GetNameEv@Base 0.1
 _ZNK8osmscout14RoutingService10GetVehicleEv@Base 0.1
 _ZNK8osmscout14RoutingService13GetTypeConfigEv@Base 0.1
 _ZNK8osmscout14RoutingService15GetDataFilenameENS_7VehicleE@Base 0.1
 _ZNK8osmscout14RoutingService16GetIndexFilenameENS_7VehicleE@Base 0.1
 _ZNK8osmscout14RoutingService22GetClosestRoutableNodeEddRKNS_7VehicleEdRNS_13ObjectFileRefERm@Base 0.1
 _ZNK8osmscout14RoutingService6IsOpenEv@Base 0.1
 _ZNK8osmscout14TileProjection10GeoToPixelERKNS_10Projection16BatchTransformerE@Base 0.1
 _ZNK8osmscout14TileProjection10GeoToPixelERKNS_8GeoCoordERdS4_@Base 0.1
 _ZNK8osmscout14TileProjection10GeoToPixelEddRdS1_@Base 0.1
 _ZNK8osmscout14TileProjection10PixelToGeoEddRdS1_@Base 0.1
 _ZNK8osmscout14TileProjection12GetPixelSizeEv@Base 0.1
 _ZNK8osmscout14TileProjection13GetDimensionsERNS_6GeoBoxE@Base 0.1
 _ZNK8osmscout14TileProjection16GetMagnificationEv@Base 0.1
 _ZNK8osmscout14TileProjection6GetDPIEv@Base 0.1
 _ZNK8osmscout14TileProjection6GetLatEv@Base 0.1
 _ZNK8osmscout14TileProjection6GetLonEv@Base 0.1
 _ZNK8osmscout14TileProjection7GeoIsInEdd@Base 0.1
 _ZNK8osmscout14TileProjection7GeoIsInEdddd@Base 0.1
 _ZNK8osmscout14TileProjection8CanBatchEv@Base 0.1
 _ZNK8osmscout14TileProjection8GetAngleEv@Base 0.1
 _ZNK8osmscout14TileProjection8GetWidthEv@Base 0.1
 _ZNK8osmscout14TileProjection9GetCenterEv@Base 0.1
 _ZNK8osmscout14TileProjection9GetHeightEv@Base 0.1
 _ZNK8osmscout15EleFeatureValue8GetLabelEv@Base 0.1
 _ZNK8osmscout15EleFeatureValueeqERKNS_12FeatureValueE@Base 0.1
 _ZNK8osmscout15IndexedDataFileImNS_12IntersectionEE3GetERKSt3setImSt4lessImESaImEERSt6vectorINS_3RefIS1_EESaISC_EE@Base 0.1
 _ZNK8osmscout15IndexedDataFileImNS_9RouteNodeEE3GetERKmRNS_3RefIS1_EE@Base 0.1
 _ZNK8osmscout15LocationFeature12GetValueSizeEv@Base 0.1
 _ZNK8osmscout15LocationFeature5ParseERNS_8ProgressERKNS_10TypeConfigERKNS_15FeatureInstanceERKNS_12ObjectOSMRefERKSt13unordered_mapItSsSt4hashItESt8equal_toItESaISt4pairIKtSsEEERNS_18FeatureValueBufferE@Base 0.1
 _ZNK8osmscout15LocationFeature7GetNameEv@Base 0.1
 _ZNK8osmscout15LocationService14VisitorMatcher13TolowerUmlautERSs@Base 0.1
 _ZNK8osmscout15LocationService14VisitorMatcher5MatchERKSsRbS4_@Base 0.1
 _ZNK8osmscout15LocationService17HandleAdminRegionERKNS_14LocationSearchERKNS1_5EntryERKNS0_23AdminRegionMatchVisitor17AdminRegionResultERNS_20LocationSearchResultE@Base 0.1
 _ZNK8osmscout15LocationService17VisitAdminRegionsERNS_18AdminRegionVisitorE@Base 0.1
 _ZNK8osmscout15LocationService18SearchForLocationsERKNS_14LocationSearchERNS_20LocationSearchResultE@Base 0.1
 _ZNK8osmscout15LocationService19ReverseLookupObjectERKNS_13ObjectFileRefERSt4listINS0_19ReverseLookupResultESaIS5_EE@Base 0.1
 _ZNK8osmscout15LocationService20HandleAdminRegionPOIERKNS_14LocationSearchERKNS0_23AdminRegionMatchVisitor17AdminRegionResultERKNS0_20LocationMatchVisitor9POIResultERNS_20LocationSearchResultE@Base 0.1
 _ZNK8osmscout15LocationService20ReverseLookupObjectsERKSt4listINS_13ObjectFileRefESaIS2_EERS1_INS0_19ReverseLookupResultESaIS7_EE@Base 0.1
 _ZNK8osmscout15LocationService22VisitLocationAddressesERKNS_11AdminRegionERKNS_8LocationERNS_14AddressVisitorE@Base 0.1
 _ZNK8osmscout15LocationService25HandleAdminRegionLocationERKNS_14LocationSearchERKNS1_5EntryERKNS0_23AdminRegionMatchVisitor17AdminRegionResultERKNS0_20LocationMatchVisitor14LocationResultERNS_20LocationSearchResultE@Base 0.1
 _ZNK8osmscout15LocationService25VisitAdminRegionLocationsERKNS_11AdminRegionERNS_15LocationVisitorE@Base 0.1
 _ZNK8osmscout15LocationService27ResolveAdminRegionHierachieERKSt10shared_ptrINS_11AdminRegionEERSt3mapImS3_St4lessImESaISt4pairIKmS3_EEE@Base 0.1
 _ZNK8osmscout15LocationService32HandleAdminRegionLocationAddressERKNS_14LocationSearchERKNS0_23AdminRegionMatchVisitor17AdminRegionResultERKNS0_20LocationMatchVisitor14LocationResultERKNS0_19AddressMatchVisitor13AddressResultERNS_20LocationSearchResultE@Base 0.1
 _ZNK8osmscout15MaxSpeedFeature12GetValueSizeEv@Base 0.1
 _ZNK8osmscout15MaxSpeedFeature5ParseERNS_8ProgressERKNS_10TypeConfigERKNS_15FeatureInstanceERKNS_12ObjectOSMRefERKSt13unordered_mapItSsSt4hashItESt8equal_toItESaISt4pairIKtSsEEERNS_18FeatureValueBufferE@Base 0.1
 _ZNK8osmscout15MaxSpeedFeature7GetNameEv@Base 0.1
 _ZNK8osmscout15RefFeatureValue8GetLabelEv@Base 0.1
 _ZNK8osmscout15RefFeatureValueeqERKNS_12FeatureValueE@Base 0.1
 _ZNK8osmscout15RouterParameter18IsDebugPerformanceEv@Base 0.1
 _ZNK8osmscout15TagNotCondition8EvaluateERKSt13unordered_mapItSsSt4hashItESt8equal_toItESaISt4pairIKtSsEEE@Base 0.1
 _ZNK8osmscout15ThreadedBreaker9IsAbortedEv@Base 0.1
 _ZNK8osmscout15TurnRestriction5WriteERNS_10FileWriterE@Base 0.1
 _ZNK8osmscout16NameFeatureValue8GetLabelEv@Base 0.1
 _ZNK8osmscout16NameFeatureValueeqERKNS_12FeatureValueE@Base 0.1
 _ZNK8osmscout16RouteDescription15NameDescription14GetDebugStringEv@Base 0.1
 _ZNK8osmscout16RouteDescription15NameDescription14GetDescriptionEv@Base 0.1
 _ZNK8osmscout16RouteDescription15NameDescription6GetRefEv@Base 0.1
 _ZNK8osmscout16RouteDescription15NameDescription7GetNameEv@Base 0.1
 _ZNK8osmscout16RouteDescription15NameDescription7HasNameEv@Base 0.1
 _ZNK8osmscout16RouteDescription15TurnDescription14GetDebugStringEv@Base 0.1
 _ZNK8osmscout16RouteDescription16StartDescription14GetDebugStringEv@Base 0.1
 _ZNK8osmscout16RouteDescription16StartDescription14GetDescriptionEv@Base 0.1
 _ZNK8osmscout16RouteDescription17TargetDescription14GetDebugStringEv@Base 0.1
 _ZNK8osmscout16RouteDescription17TargetDescription14GetDescriptionEv@Base 0.1
 _ZNK8osmscout16RouteDescription20DirectionDescription14GetDebugStringEv@Base 0.1
 _ZNK8osmscout16RouteDescription20DirectionDescription18ConvertAngleToMoveEd@Base 0.1
 _ZNK8osmscout16RouteDescription20DirectionDescription19ConvertMoveToStringENS1_4MoveE@Base 0.1
 _ZNK8osmscout16RouteDescription22NameChangedDescription14GetDebugStringEv@Base 0.1
 _ZNK8osmscout16RouteDescription23CrossingWaysDescription14GetDebugStringEv@Base 0.1
 _ZNK8osmscout16RouteDescription24MotorwayEnterDescription14GetDebugStringEv@Base 0.1
 _ZNK8osmscout16RouteDescription24MotorwayLeaveDescription14GetDebugStringEv@Base 0.1
 _ZNK8osmscout16RouteDescription25MotorwayChangeDescription14GetDebugStringEv@Base 0.1
 _ZNK8osmscout16RouteDescription26RoundaboutEnterDescription14GetDebugStringEv@Base 0.1
 _ZNK8osmscout16RouteDescription26RoundaboutLeaveDescription14GetDebugStringEv@Base 0.1
 _ZNK8osmscout16RouteDescription27MotorwayJunctionDescription14GetDebugStringEv@Base 0.1
 _ZNK8osmscout16RouteDescription4Node14GetDescriptionEPKc@Base 0.1
 _ZNK8osmscout16RouteDescription4Node14HasDescriptionEPKc@Base 0.1
 _ZNK8osmscout16TagBoolCondition8EvaluateERKSt13unordered_mapItSsSt4hashItESt8equal_toItESaISt4pairIKtSsEEE@Base 0.1
 _ZNK8osmscout16TagIsInCondition8EvaluateERKSt13unordered_mapItSsSt4hashItESt8equal_toItESaISt4pairIKtSsEEE@Base 0.1
 _ZNK8osmscout17AdminLevelFeature12GetValueSizeEv@Base 0.1
 _ZNK8osmscout17AdminLevelFeature5ParseERNS_8ProgressERKNS_10TypeConfigERKNS_15FeatureInstanceERKNS_12ObjectOSMRefERKSt13unordered_mapItSsSt4hashItESt8equal_toItESaISt4pairIKtSsEEERNS_18FeatureValueBufferE@Base 0.1
 _ZNK8osmscout17AdminLevelFeature7GetNameEv@Base 0.1
 _ZNK8osmscout17DatabaseParameter15GetWayCacheSizeEv@Base 0.1
 _ZNK8osmscout17DatabaseParameter16GetAreaCacheSizeEv@Base 0.1
 _ZNK8osmscout17DatabaseParameter16GetNodeCacheSizeEv@Base 0.1
 _ZNK8osmscout17DatabaseParameter25GetAreaAreaIndexCacheSizeEv@Base 0.1
 _ZNK8osmscout17DatabaseParameter25GetAreaNodeIndexCacheSizeEv@Base 0.1
 _ZNK8osmscout17GradeFeatureValueeqERKNS_12FeatureValueE@Base 0.1
 _ZNK8osmscout17LayerFeatureValueeqERKNS_12FeatureValueE@Base 0.1
 _ZNK8osmscout17RoundaboutFeature12GetValueSizeEv@Base 0.1
 _ZNK8osmscout17RoundaboutFeature5ParseERNS_8ProgressERKNS_10TypeConfigERKNS_15FeatureInstanceERKNS_12ObjectOSMRefERKSt13unordered_mapItSsSt4hashItESt8equal_toItESaISt4pairIKtSsEEERNS_18FeatureValueBufferE@Base 0.1
 _ZNK8osmscout17RoundaboutFeature7GetNameEv@Base 0.1
 _ZNK8osmscout17WidthFeatureValueeqERKNS_12FeatureValueE@Base 0.1
 _ZNK8osmscout18AccessFeatureValueeqERKNS_12FeatureValueE@Base 0.1
 _ZNK8osmscout18FeatureValueBuffer5WriteERNS_10FileWriterE@Base 0.1
 _ZNK8osmscout18FeatureValueBuffer5WriteERNS_10FileWriterEb@Base 0.1
 _ZNK8osmscout18FeatureValueBuffereqERKS0_@Base 0.1
 _ZNK8osmscout18FeatureValueBufferneERKS0_@Base 0.1
 _ZNK8osmscout18FeatureValueReaderINS_10RefFeatureENS_15RefFeatureValueEE8GetValueERKNS_18FeatureValueBufferE@Base 0.1
 _ZNK8osmscout18FeatureValueReaderINS_11NameFeatureENS_16NameFeatureValueEE8GetValueERKNS_18FeatureValueBufferE@Base 0.1
 _ZNK8osmscout18FeatureValueReaderINS_13AccessFeatureENS_18AccessFeatureValueEE8GetValueERKNS_18FeatureValueBufferE@Base 0.1
 _ZNK8osmscout18FeatureValueReaderINS_15MaxSpeedFeatureENS_20MaxSpeedFeatureValueEE8GetValueERKNS_18FeatureValueBufferE@Base 0.1
 _ZNK8osmscout18MercatorProjection10GeoToPixelERKNS_10Projection16BatchTransformerE@Base 0.1
 _ZNK8osmscout18MercatorProjection10GeoToPixelERKNS_8GeoCoordERdS4_@Base 0.1
 _ZNK8osmscout18MercatorProjection10GeoToPixelEddRdS1_@Base 0.1
 _ZNK8osmscout18MercatorProjection10PixelToGeoEddRdS1_@Base 0.1
 _ZNK8osmscout18MercatorProjection12GetPixelSizeEv@Base 0.1
 _ZNK8osmscout18MercatorProjection13GetDimensionsERNS_6GeoBoxE@Base 0.1
 _ZNK8osmscout18MercatorProjection16GetMagnificationEv@Base 0.1
 _ZNK8osmscout18MercatorProjection6GetDPIEv@Base 0.1
 _ZNK8osmscout18MercatorProjection6GetLatEv@Base 0.1
 _ZNK8osmscout18MercatorProjection6GetLonEv@Base 0.1
 _ZNK8osmscout18MercatorProjection7GeoIsInEdd@Base 0.1
 _ZNK8osmscout18MercatorProjection7GeoIsInEdddd@Base 0.1
 _ZNK8osmscout18MercatorProjection8CanBatchEv@Base 0.1
 _ZNK8osmscout18MercatorProjection8GetAngleEv@Base 0.1
 _ZNK8osmscout18MercatorProjection8GetWidthEv@Base 0.1
 _ZNK8osmscout18MercatorProjection9GetCenterEv@Base 0.1
 _ZNK8osmscout18MercatorProjection9GetHeightEv@Base 0.1
 _ZNK8osmscout18RoutePostprocessor12GetNodeIndexERKNS_13ObjectFileRefEm@Base 0.1
 _ZNK8osmscout18RoutePostprocessor12IsRoundaboutERKNS_13ObjectFileRefE@Base 0.1
 _ZNK8osmscout18RoutePostprocessor13CanUseForwardERKNS_14RoutingProfileEmRKNS_13ObjectFileRefE@Base 0.1
 _ZNK8osmscout18RoutePostprocessor13IsForwardPathERKNS_13ObjectFileRefEmm@Base 0.1
 _ZNK8osmscout18RoutePostprocessor14CanUseBackwardERKNS_14RoutingProfileEmRKNS_13ObjectFileRefE@Base 0.1
 _ZNK8osmscout18RoutePostprocessor14GetCoordinatesERKNS_13ObjectFileRefEmRdS4_@Base 0.1
 _ZNK8osmscout18RoutePostprocessor14IsBackwardPathERKNS_13ObjectFileRefEmm@Base 0.1
 _ZNK8osmscout18RoutePostprocessor18GetNameDescriptionERKNS_13ObjectFileRefE@Base 0.1
 _ZNK8osmscout18RoutePostprocessor18GetNameDescriptionERKNS_3WayE@Base 0.1
 _ZNK8osmscout18RoutePostprocessor18GetNameDescriptionERKNS_4AreaE@Base 0.1
 _ZNK8osmscout18RoutePostprocessor24IsNodeStartOrEndOfObjectERKNS_13ObjectFileRefEmS3_@Base 0.1
 _ZNK8osmscout18RoutePostprocessor6GetWayEm@Base 0.1
 _ZNK8osmscout18RoutePostprocessor7GetAreaEm@Base 0.1
 _ZNK8osmscout18RoutePostprocessor8IsBridgeERKNS_3WayE@Base 0.1
 _ZNK8osmscout18RoutePostprocessor8IsOfTypeERKNS_13ObjectFileRefERKNS_11TypeInfoSetE@Base 0.1
 _ZNK8osmscout18RoutePostprocessor9GetNodeIdERKNS_13ObjectFileRefEm@Base 0.1
 _ZNK8osmscout18TagBinaryCondition8EvaluateERKSt13unordered_mapItSsSt4hashItESt8equal_toItESaISt4pairIKtSsEEE@Base 0.1
 _ZNK8osmscout18TagExistsCondition8EvaluateERKSt13unordered_mapItSsSt4hashItESt8equal_toItESaISt4pairIKtSsEEE@Base 0.1
 _ZNK8osmscout19AddressFeatureValue8GetLabelEv@Base 0.1
 _ZNK8osmscout19AddressFeatureValueeqERKNS_12FeatureValueE@Base 0.1
 _ZNK8osmscout19NameAltFeatureValue8GetLabelEv@Base 0.1
 _ZNK8osmscout19NameAltFeatureValueeqERKNS_12FeatureValueE@Base 0.1
 _ZNK8osmscout19OptimizeWaysLowZoom10GetOffsetsERKNS0_8TypeDataEddddRSt6vectorImSaImEE@Base 0.1
 _ZNK8osmscout19OptimizeWaysLowZoom16HasOptimizationsEd@Base 0.1
 _ZNK8osmscout19OptimizeWaysLowZoom7GetWaysEddddRKNS_13MagnificationEmRSt6vectorINS_7TypeSetESaIS5_EERS4_INS_3RefINS_3WayEEESaISB_EE@Base 0.1
 _ZNK8osmscout20LocationFeatureValueeqERKNS_12FeatureValueE@Base 0.1
 _ZNK8osmscout20LocationSearchResult5EntryeqERKS1_@Base 0.1
 _ZNK8osmscout20LocationSearchResult5EntryltERKS1_@Base 0.1
 _ZNK8osmscout20MaxSpeedFeatureValueeqERKNS_12FeatureValueE@Base 0.1
 _ZNK8osmscout20OptimizeAreasLowZoom10GetOffsetsERKNS0_8TypeDataEddddRSt6vectorImSaImEE@Base 0.1
 _ZNK8osmscout20OptimizeAreasLowZoom16HasOptimizationsEd@Base 0.1
 _ZNK8osmscout20OptimizeAreasLowZoom8GetAreasEddddRKNS_13MagnificationEmRNS_7TypeSetERSt6vectorINS_3RefINS_4AreaEEESaIS9_EE@Base 0.1
 _ZNK8osmscout22AbstractRoutingProfile13CanUseForwardERKNS_3WayE@Base 0.1
 _ZNK8osmscout22AbstractRoutingProfile14CanUseBackwardERKNS_3WayE@Base 0.1
 _ZNK8osmscout22AbstractRoutingProfile6CanUseERKNS_3WayE@Base 0.1
 _ZNK8osmscout22AbstractRoutingProfile6CanUseERKNS_4AreaE@Base 0.1
 _ZNK8osmscout22AbstractRoutingProfile6CanUseERKNS_9RouteNodeEm@Base 0.1
 _ZNK8osmscout22AbstractRoutingProfile7GetTimeERKNS_3WayEd@Base 0.1
 _ZNK8osmscout22AbstractRoutingProfile7GetTimeERKNS_4AreaEd@Base 0.1
 _ZNK8osmscout22AdminLevelFeatureValueeqERKNS_12FeatureValueE@Base 0.1
 _ZNK8osmscout23AccessRestrictedFeature12GetValueSizeEv@Base 0.1
 _ZNK8osmscout23AccessRestrictedFeature5ParseERNS_8ProgressERKNS_10TypeConfigERKNS_15FeatureInstanceERKNS_12ObjectOSMRefERKSt13unordered_mapItSsSt4hashItESt8equal_toItESaISt4pairIKtSsEEERNS_18FeatureValueBufferE@Base 0.1
 _ZNK8osmscout23AccessRestrictedFeature7GetNameEv@Base 0.1
 _ZNK8osmscout25FastestPathRoutingProfile8GetCostsERKNS_3WayEd@Base 0.1
 _ZNK8osmscout25FastestPathRoutingProfile8GetCostsERKNS_4AreaEd@Base 0.1
 _ZNK8osmscout25FastestPathRoutingProfile8GetCostsERKNS_9RouteNodeEm@Base 0.1
 _ZNK8osmscout25FastestPathRoutingProfile8GetCostsEd@Base 0.1
 _ZNK8osmscout26ShortestPathRoutingProfile8GetCostsERKNS_3WayEd@Base 0.1
 _ZNK8osmscout26ShortestPathRoutingProfile8GetCostsERKNS_4AreaEd@Base 0.1
 _ZNK8osmscout26ShortestPathRoutingProfile8GetCostsERKNS_9RouteNodeEm@Base 0.1
 _ZNK8osmscout26ShortestPathRoutingProfile8GetCostsEd@Base 0.1
 _ZNK8osmscout3Way14GetCoordinatesEmRdS1_@Base 0.1
 _ZNK8osmscout3Way14WriteOptimizedERKNS_10TypeConfigERNS_10FileWriterE@Base 0.1
 _ZNK8osmscout3Way20GetNodeIndexByNodeIdEmRm@Base 0.1
 _ZNK8osmscout3Way5WriteERKNS_10TypeConfigERNS_10FileWriterE@Base 0.1
 _ZNK8osmscout3Way9GetCenterERNS_8GeoCoordE@Base 0.1
 _ZNK8osmscout4Area14GetBoundingBoxERNS_6GeoBoxE@Base 0.1
 _ZNK8osmscout4Area14WriteOptimizedERKNS_10TypeConfigERNS_10FileWriterE@Base 0.1
 _ZNK8osmscout4Area4Ring14GetBoundingBoxERNS_6GeoBoxE@Base 0.1
 _ZNK8osmscout4Area4Ring9GetCenterERNS_8GeoCoordE@Base 0.1
 _ZNK8osmscout4Area5WriteERKNS_10TypeConfigERNS_10FileWriterE@Base 0.1
 _ZNK8osmscout4Area8WriteIdsERNS_10FileWriterERKSt6vectorImSaImEE@Base 0.1
 _ZNK8osmscout4Area9GetCenterERNS_8GeoCoordE@Base 0.1
 _ZNK8osmscout4Node5WriteERKNS_10TypeConfigERNS_10FileWriterE@Base 0.1
 _ZNK8osmscout5Color11ToHexStringEv@Base 0.1
 _ZNK8osmscout5ColorltERKS0_@Base 0.1
 _ZNK8osmscout6GeoBox14GetDisplayTextEv@Base 0.1
 _ZNK8osmscout6GeoBox9GetCenterEv@Base 0.1
 _ZNK8osmscout7Feature13GetLabelIndexERKSsRm@Base 0.1
 _ZNK8osmscout7Feature8HasLabelEv@Base 0.1
 _ZNK8osmscout7Feature8HasValueEv@Base 0.1
 _ZNK8osmscout8DataFileINS_12IntersectionEE11GetByOffsetERKSt6vectorImSaImEERS3_INS_3RefIS1_EESaIS9_EE@Base 0.1
 _ZNK8osmscout8DataFileINS_3WayEE11GetByOffsetERKSt3setImSt4lessImESaImEERSt13unordered_mapImNS_3RefIS1_EESt4hashImESt8equal_toImESaISt4pairIKmSC_EEE@Base 0.1
 _ZNK8osmscout8DataFileINS_3WayEE11GetByOffsetERKSt3setImSt4lessImESaImEERSt6vectorINS_3RefIS1_EESaISC_EE@Base 0.1
 _ZNK8osmscout8DataFileINS_3WayEE11GetByOffsetERKSt4listImSaImEERSt6vectorINS_3RefIS1_EESaISA_EE@Base 0.1
 _ZNK8osmscout8DataFileINS_3WayEE11GetByOffsetERKSt6vectorImSaImEERS3_INS_3RefIS1_EESaIS9_EE@Base 0.1
 _ZNK8osmscout8DataFileINS_3WayEE11GetByOffsetERKmRNS_3RefIS1_EE@Base 0.1
 _ZNK8osmscout8DataFileINS_3WayEE14DumpStatisticsEv@Base 0.1
 _ZNK8osmscout8DataFileINS_3WayEE19DataCacheValueSizer7GetSizeERKNS_3RefIS1_EE@Base 0.1
 _ZNK8osmscout8DataFileINS_4AreaEE11GetByOffsetERKSt3setImSt4lessImESaImEERSt13unordered_mapImNS_3RefIS1_EESt4hashImESt8equal_toImESaISt4pairIKmSC_EEE@Base 0.1
 _ZNK8osmscout8DataFileINS_4AreaEE11GetByOffsetERKSt3setImSt4lessImESaImEERSt6vectorINS_3RefIS1_EESaISC_EE@Base 0.1
 _ZNK8osmscout8DataFileINS_4AreaEE11GetByOffsetERKSt4listImSaImEERSt6vectorINS_3RefIS1_EESaISA_EE@Base 0.1
 _ZNK8osmscout8DataFileINS_4AreaEE11GetByOffsetERKSt6vectorImSaImEERS3_INS_3RefIS1_EESaIS9_EE@Base 0.1
 _ZNK8osmscout8DataFileINS_4AreaEE11GetByOffsetERKmRNS_3RefIS1_EE@Base 0.1
 _ZNK8osmscout8DataFileINS_4AreaEE14DumpStatisticsEv@Base 0.1
 _ZNK8osmscout8DataFileINS_4AreaEE19DataCacheValueSizer7GetSizeERKNS_3RefIS1_EE@Base 0.1
 _ZNK8osmscout8DataFileINS_4NodeEE11GetByOffsetERKSt3setImSt4lessImESaImEERSt13unordered_mapImNS_3RefIS1_EESt4hashImESt8equal_toImESaISt4pairIKmSC_EEE@Base 0.1
 _ZNK8osmscout8DataFileINS_4NodeEE11GetByOffsetERKSt3setImSt4lessImESaImEERSt6vectorINS_3RefIS1_EESaISC_EE@Base 0.1
 _ZNK8osmscout8DataFileINS_4NodeEE11GetByOffsetERKSt4listImSaImEERSt6vectorINS_3RefIS1_EESaISA_EE@Base 0.1
 _ZNK8osmscout8DataFileINS_4NodeEE11GetByOffsetERKSt6vectorImSaImEERS3_INS_3RefIS1_EESaIS9_EE@Base 0.1
 _ZNK8osmscout8DataFileINS_4NodeEE11GetByOffsetERKmRNS_3RefIS1_EE@Base 0.1
 _ZNK8osmscout8DataFileINS_4NodeEE14DumpStatisticsEv@Base 0.1
 _ZNK8osmscout8DataFileINS_4NodeEE19DataCacheValueSizer7GetSizeERKNS_3RefIS1_EE@Base 0.1
 _ZNK8osmscout8DataFileINS_9RouteNodeEE11GetByOffsetERKSt3setImSt4lessImESaImEERSt13unordered_mapImNS_3RefIS1_EESt4hashImESt8equal_toImESaISt4pairIKmSC_EEE@Base 0.1
 _ZNK8osmscout8DataFileINS_9RouteNodeEE11GetByOffsetERKSt3setImSt4lessImESaImEERSt6vectorINS_3RefIS1_EESaISC_EE@Base 0.1
 _ZNK8osmscout8DataFileINS_9RouteNodeEE11GetByOffsetERKmRNS_3RefIS1_EE@Base 0.1
 _ZNK8osmscout8DataFileINS_9RouteNodeEE14DumpStatisticsEv@Base 0.1
 _ZNK8osmscout8DataFileINS_9RouteNodeEE19DataCacheValueSizer7GetSizeERKNS_3RefIS1_EE@Base 0.1
 _ZNK8osmscout8Database13GetTypeConfigEv@Base 0.1
 _ZNK8osmscout8Database13GetWaterIndexEv@Base 0.1
 _ZNK8osmscout8Database14GetBoundingBoxERNS_6GeoBoxE@Base 0.1
 _ZNK8osmscout8Database14GetWayByOffsetERKmRNS_3RefINS_3WayEEE@Base 0.1
 _ZNK8osmscout8Database14GetWayDataFileEv@Base 0.1
 _ZNK8osmscout8Database15GetAreaByOffsetERKmRNS_3RefINS_4AreaEEE@Base 0.1
 _ZNK8osmscout8Database15GetAreaDataFileEv@Base 0.1
 _ZNK8osmscout8Database15GetAreaWayIndexEv@Base 0.1
 _ZNK8osmscout8Database15GetNodeByOffsetERKmRNS_3RefINS_4NodeEEE@Base 0.1
 _ZNK8osmscout8Database15GetNodeDataFileEv@Base 0.1
 _ZNK8osmscout8Database15GetWaysByOffsetERKSt3setImSt4lessImESaImEERSt13unordered_mapImNS_3RefINS_3WayEEESt4hashImESt8equal_toImESaISt4pairIKmSB_EEE@Base 0.1
 _ZNK8osmscout8Database15GetWaysByOffsetERKSt3setImSt4lessImESaImEERSt6vectorINS_3RefINS_3WayEEESaISB_EE@Base 0.1
 _ZNK8osmscout8Database15GetWaysByOffsetERKSt4listImSaImEERSt6vectorINS_3RefINS_3WayEEESaIS9_EE@Base 0.1
 _ZNK8osmscout8Database15GetWaysByOffsetERKSt6vectorImSaImEERS1_INS_3RefINS_3WayEEESaIS8_EE@Base 0.1
 _ZNK8osmscout8Database16GetAreaAreaIndexEv@Base 0.1
 _ZNK8osmscout8Database16GetAreaNodeIndexEv@Base 0.1
 _ZNK8osmscout8Database16GetAreasByOffsetERKSt3setImSt4lessImESaImEERSt13unordered_mapImNS_3RefINS_4AreaEEESt4hashImESt8equal_toImESaISt4pairIKmSB_EEE@Base 0.1
 _ZNK8osmscout8Database16GetAreasByOffsetERKSt3setImSt4lessImESaImEERSt6vectorINS_3RefINS_4AreaEEESaISB_EE@Base 0.1
 _ZNK8osmscout8Database16GetAreasByOffsetERKSt4listImSaImEERSt6vectorINS_3RefINS_4AreaEEESaIS9_EE@Base 0.1
 _ZNK8osmscout8Database16GetAreasByOffsetERKSt6vectorImSaImEERS1_INS_3RefINS_4AreaEEESaIS8_EE@Base 0.1
 _ZNK8osmscout8Database16GetLocationIndexEv@Base 0.1
 _ZNK8osmscout8Database16GetNodesByOffsetERKSt3setImSt4lessImESaImEERSt13unordered_mapImNS_3RefINS_4NodeEEESt4hashImESt8equal_toImESaISt4pairIKmSB_EEE@Base 0.1
 _ZNK8osmscout8Database16GetNodesByOffsetERKSt3setImSt4lessImESaImEERSt6vectorINS_3RefINS_4NodeEEESaISB_EE@Base 0.1
 _ZNK8osmscout8Database16GetNodesByOffsetERKSt4listImSaImEERSt6vectorINS_3RefINS_4NodeEEESaIS9_EE@Base 0.1
 _ZNK8osmscout8Database16GetNodesByOffsetERKSt6vectorImSaImEERS1_INS_3RefINS_4NodeEEESaIS8_EE@Base 0.1
 _ZNK8osmscout8Database22GetOptimizeWaysLowZoomEv@Base 0.1
 _ZNK8osmscout8Database23GetOptimizeAreasLowZoomEv@Base 0.1
 _ZNK8osmscout8Database6IsOpenEv@Base 0.1
 _ZNK8osmscout8Database7GetPathEv@Base 0.1
 _ZNK8osmscout8GeoCoord14GetDisplayTextEv@Base 0.1
 _ZNK8osmscout8Progress11OutputDebugEv@Base 0.1
 _ZNK8osmscout8TypeInfo10GetFeatureERKSsRm@Base 0.1
 _ZNK8osmscout8TypeInfo10HasFeatureERKSs@Base 0.1
 _ZNK8osmscout8TypeInfo16GetDefaultAccessEv@Base 0.1
 _ZNK8osmscout9NumberSet5IsSetEm@Base 0.1
 _ZNK8osmscout9RouteNode5WriteERNS_10FileWriterE@Base 0.1
 _ZNK8osmscout9StopClock12ResultStringEv@Base 0.1
 _ZNK8osmscout9StopClock15GetMillisecondsEv@Base 0.1
 _ZNKSt10_HashtableISsSsSaISsENSt8__detail9_IdentityESt8equal_toISsESt4hashISsENS1_18_Mod_range_hashingENS1_20_Default_ranged_hashENS1_20_Prime_rehash_policyENS1_17_Hashtable_traitsILb1ELb1ELb1EEEE19_M_find_before_nodeEmRKSsm@Base 0.1
 _ZNKSt10_HashtableISsSsSaISsENSt8__detail9_IdentityESt8equal_toISsESt4hashISsENS1_18_Mod_range_hashingENS1_20_Default_ranged_hashENS1_20_Prime_rehash_policyENS1_17_Hashtable_traitsILb1ELb1ELb1EEEE4findERKSs@Base 0.1
 _ZNKSt10_HashtableISsSt4pairIKSsN8osmscout13Magnification3MagEESaIS5_ENSt8__detail10_Select1stESt8equal_toISsESt4hashISsENS7_18_Mod_range_hashingENS7_20_Default_ranged_hashENS7_20_Prime_rehash_policyENS7_17_Hashtable_traitsILb1ELb0ELb1EEEE19_M_find_before_nodeEmRS1_m@Base 0.1
 _ZNKSt10_HashtableISsSt4pairIKSsN8osmscout3RefINS2_16RouteDescription11DescriptionEEEESaIS7_ENSt8__detail10_Select1stESt8equal_toISsESt4hashISsENS9_18_Mod_range_hashingENS9_20_Default_ranged_hashENS9_20_Prime_rehash_policyENS9_17_Hashtable_traitsILb1ELb0ELb1EEEE19_M_find_before_nodeEmRS1_m@Base 0.1
 _ZNKSt10_HashtableISsSt4pairIKSsN8osmscout3RefINS2_16RouteDescription11DescriptionEEEESaIS7_ENSt8__detail10_Select1stESt8equal_toISsESt4hashISsENS9_18_Mod_range_hashingENS9_20_Default_ranged_hashENS9_20_Prime_rehash_policyENS9_17_Hashtable_traitsILb1ELb0ELb1EEEE4findERS1_@Base 0.1
 _ZNKSt10_HashtableISsSt4pairIKSsN8osmscout3RefINS2_7FeatureEEEESaIS6_ENSt8__detail10_Select1stESt8equal_toISsESt4hashISsENS8_18_Mod_range_hashingENS8_20_Default_ranged_hashENS8_20_Prime_rehash_policyENS8_17_Hashtable_traitsILb1ELb0ELb1EEEE19_M_find_before_nodeEmRS1_m@Base 0.1
 _ZNKSt10_HashtableISsSt4pairIKSsSt10shared_ptrIN8osmscout8TypeInfoEEESaIS6_ENSt8__detail10_Select1stESt8equal_toISsESt4hashISsENS8_18_Mod_range_hashingENS8_20_Default_ranged_hashENS8_20_Prime_rehash_policyENS8_17_Hashtable_traitsILb1ELb0ELb1EEEE19_M_find_before_nodeEmRS1_m@Base 0.1
 _ZNKSt10_HashtableISsSt4pairIKSshESaIS2_ENSt8__detail10_Select1stESt8equal_toISsESt4hashISsENS4_18_Mod_range_hashingENS4_20_Default_ranged_hashENS4_20_Prime_rehash_policyENS4_17_Hashtable_traitsILb1ELb0ELb1EEEE19_M_find_before_nodeEmRS1_m@Base 0.1
 _ZNKSt10_HashtableISsSt4pairIKSsmESaIS2_ENSt8__detail10_Select1stESt8equal_toISsESt4hashISsENS4_18_Mod_range_hashingENS4_20_Default_ranged_hashENS4_20_Prime_rehash_policyENS4_17_Hashtable_traitsILb1ELb0ELb1EEEE19_M_find_before_nodeEmRS1_m@Base 0.1
 _ZNKSt10_HashtableISsSt4pairIKSsmESaIS2_ENSt8__detail10_Select1stESt8equal_toISsESt4hashISsENS4_18_Mod_range_hashingENS4_20_Default_ranged_hashENS4_20_Prime_rehash_policyENS4_17_Hashtable_traitsILb1ELb0ELb1EEEE4findERS1_@Base 0.1
 _ZNKSt10_HashtableISsSt4pairIKSstESaIS2_ENSt8__detail10_Select1stESt8equal_toISsESt4hashISsENS4_18_Mod_range_hashingENS4_20_Default_ranged_hashENS4_20_Prime_rehash_policyENS4_17_Hashtable_traitsILb1ELb0ELb1EEEE19_M_find_before_nodeEmRS1_m@Base 0.1
 _ZNKSt10_HashtableImSt4pairIKmSt10shared_ptrIN8osmscout14RoutingService5RNodeEEESaIS7_ENSt8__detail10_Select1stESt8equal_toImESt4hashImENS9_18_Mod_range_hashingENS9_20_Default_ranged_hashENS9_20_Prime_rehash_policyENS9_17_Hashtable_traitsILb0ELb0ELb1EEEE4findERS1_@Base 0.1
 _ZNKSt10_HashtableItSt4pairIKtSsESaIS2_ENSt8__detail10_Select1stESt8equal_toItESt4hashItENS4_18_Mod_range_hashingENS4_20_Default_ranged_hashENS4_20_Prime_rehash_policyENS4_17_Hashtable_traitsILb0ELb0ELb1EEEE4findERS1_@Base 0.1
 _ZNKSt10_HashtableItSt4pairIKtjESaIS2_ENSt8__detail10_Select1stESt8equal_toItESt4hashItENS4_18_Mod_range_hashingENS4_20_Default_ranged_hashENS4_20_Prime_rehash_policyENS4_17_Hashtable_traitsILb0ELb0ELb1EEEE4findERS1_@Base 0.1
 _ZNSs12_S_constructIPcEES0_T_S1_RKSaIcESt20forward_iterator_tag@Base 0.1
 _ZNSt10_HashtableISsSsSaISsENSt8__detail9_IdentityESt8equal_toISsESt4hashISsENS1_18_Mod_range_hashingENS1_20_Default_ranged_hashENS1_20_Prime_rehash_policyENS1_17_Hashtable_traitsILb1ELb1ELb1EEEE21_M_insert_unique_nodeEmmPNS1_10_Hash_nodeISsLb1EEE@Base 0.1
 _ZNSt10_HashtableISsSsSaISsENSt8__detail9_IdentityESt8equal_toISsESt4hashISsENS1_18_Mod_range_hashingENS1_20_Default_ranged_hashENS1_20_Prime_rehash_policyENS1_17_Hashtable_traitsILb1ELb1ELb1EEEE5clearEv@Base 0.1
 _ZNSt10_HashtableISsSsSaISsENSt8__detail9_IdentityESt8equal_toISsESt4hashISsENS1_18_Mod_range_hashingENS1_20_Default_ranged_hashENS1_20_Prime_rehash_policyENS1_17_Hashtable_traitsILb1ELb1ELb1EEEE9_M_insertIRKSsEESt4pairINS1_14_Node_iteratorISsLb1ELb1EEEbEOT_St17integral_constantIbLb1EE@Base 0.1
 _ZNSt10_HashtableISsSt4pairIKSsN8osmscout13Magnification3MagEESaIS5_ENSt8__detail10_Select1stESt8equal_toISsESt4hashISsENS7_18_Mod_range_hashingENS7_20_Default_ranged_hashENS7_20_Prime_rehash_policyENS7_17_Hashtable_traitsILb1ELb0ELb1EEEE21_M_insert_unique_nodeEmmPNS7_10_Hash_nodeIS5_Lb1EEE@Base 0.1
 _ZNSt10_HashtableISsSt4pairIKSsN8osmscout3RefINS2_16RouteDescription11DescriptionEEEESaIS7_ENSt8__detail10_Select1stESt8equal_toISsESt4hashISsENS9_18_Mod_range_hashingENS9_20_Default_ranged_hashENS9_20_Prime_rehash_policyENS9_17_Hashtable_traitsILb1ELb0ELb1EEEE21_M_insert_unique_nodeEmmPNS9_10_Hash_nodeIS7_Lb1EEE@Base 0.1
 _ZNSt10_HashtableISsSt4pairIKSsN8osmscout3RefINS2_16RouteDescription11DescriptionEEEESaIS7_ENSt8__detail10_Select1stESt8equal_toISsESt4hashISsENS9_18_Mod_range_hashingENS9_20_Default_ranged_hashENS9_20_Prime_rehash_policyENS9_17_Hashtable_traitsILb1ELb0ELb1EEEEC1EOSK_@Base 0.1
 _ZNSt10_HashtableISsSt4pairIKSsN8osmscout3RefINS2_16RouteDescription11DescriptionEEEESaIS7_ENSt8__detail10_Select1stESt8equal_toISsESt4hashISsENS9_18_Mod_range_hashingENS9_20_Default_ranged_hashENS9_20_Prime_rehash_policyENS9_17_Hashtable_traitsILb1ELb0ELb1EEEEC2EOSK_@Base 0.1
 _ZNSt10_HashtableISsSt4pairIKSsN8osmscout3RefINS2_7FeatureEEEESaIS6_ENSt8__detail10_Select1stESt8equal_toISsESt4hashISsENS8_18_Mod_range_hashingENS8_20_Default_ranged_hashENS8_20_Prime_rehash_policyENS8_17_Hashtable_traitsILb1ELb0ELb1EEEE21_M_insert_unique_nodeEmmPNS8_10_Hash_nodeIS6_Lb1EEE@Base 0.1
 _ZNSt10_HashtableISsSt4pairIKSsN8osmscout3RefINS2_7FeatureEEEESaIS6_ENSt8__detail10_Select1stESt8equal_toISsESt4hashISsENS8_18_Mod_range_hashingENS8_20_Default_ranged_hashENS8_20_Prime_rehash_policyENS8_17_Hashtable_traitsILb1ELb0ELb1EEEE5clearEv@Base 0.1
 _ZNSt10_HashtableISsSt4pairIKSsSt10shared_ptrIN8osmscout8TypeInfoEEESaIS6_ENSt8__detail10_Select1stESt8equal_toISsESt4hashISsENS8_18_Mod_range_hashingENS8_20_Default_ranged_hashENS8_20_Prime_rehash_policyENS8_17_Hashtable_traitsILb1ELb0ELb1EEEE21_M_insert_unique_nodeEmmPNS8_10_Hash_nodeIS6_Lb1EEE@Base 0.1
 _ZNSt10_HashtableISsSt4pairIKSsSt10shared_ptrIN8osmscout8TypeInfoEEESaIS6_ENSt8__detail10_Select1stESt8equal_toISsESt4hashISsENS8_18_Mod_range_hashingENS8_20_Default_ranged_hashENS8_20_Prime_rehash_policyENS8_17_Hashtable_traitsILb1ELb0ELb1EEEE5clearEv@Base 0.1
 _ZNSt10_HashtableISsSt4pairIKSshESaIS2_ENSt8__detail10_Select1stESt8equal_toISsESt4hashISsENS4_18_Mod_range_hashingENS4_20_Default_ranged_hashENS4_20_Prime_rehash_policyENS4_17_Hashtable_traitsILb1ELb0ELb1EEEE21_M_insert_unique_nodeEmmPNS4_10_Hash_nodeIS2_Lb1EEE@Base 0.1
 _ZNSt10_HashtableISsSt4pairIKSshESaIS2_ENSt8__detail10_Select1stESt8equal_toISsESt4hashISsENS4_18_Mod_range_hashingENS4_20_Default_ranged_hashENS4_20_Prime_rehash_policyENS4_17_Hashtable_traitsILb1ELb0ELb1EEEE5clearEv@Base 0.1
 _ZNSt10_HashtableISsSt4pairIKSsmESaIS2_ENSt8__detail10_Select1stESt8equal_toISsESt4hashISsENS4_18_Mod_range_hashingENS4_20_Default_ranged_hashENS4_20_Prime_rehash_policyENS4_17_Hashtable_traitsILb1ELb0ELb1EEEE10_M_emplaceIIS0_ISsmEEEES0_INS4_14_Node_iteratorIS2_Lb0ELb1EEEbESt17integral_constantIbLb1EEDpOT_@Base 0.1
 _ZNSt10_HashtableISsSt4pairIKSsmESaIS2_ENSt8__detail10_Select1stESt8equal_toISsESt4hashISsENS4_18_Mod_range_hashingENS4_20_Default_ranged_hashENS4_20_Prime_rehash_policyENS4_17_Hashtable_traitsILb1ELb0ELb1EEEE10_M_emplaceIJS0_ISsmEEEES0_INS4_14_Node_iteratorIS2_Lb0ELb1EEEbESt17integral_constantIbLb1EEDpOT_@Base 0.1
 _ZNSt10_HashtableISsSt4pairIKSsmESaIS2_ENSt8__detail10_Select1stESt8equal_toISsESt4hashISsENS4_18_Mod_range_hashingENS4_20_Default_ranged_hashENS4_20_Prime_rehash_policyENS4_17_Hashtable_traitsILb1ELb0ELb1EEEE21_M_insert_unique_nodeEmmPNS4_10_Hash_nodeIS2_Lb1EEE@Base 0.1
 _ZNSt10_HashtableISsSt4pairIKSsmESaIS2_ENSt8__detail10_Select1stESt8equal_toISsESt4hashISsENS4_18_Mod_range_hashingENS4_20_Default_ranged_hashENS4_20_Prime_rehash_policyENS4_17_Hashtable_traitsILb1ELb0ELb1EEEE4findERS1_@Base 0.1
 _ZNSt10_HashtableISsSt4pairIKSsmESaIS2_ENSt8__detail10_Select1stESt8equal_toISsESt4hashISsENS4_18_Mod_range_hashingENS4_20_Default_ranged_hashENS4_20_Prime_rehash_policyENS4_17_Hashtable_traitsILb1ELb0ELb1EEEE5clearEv@Base 0.1
 _ZNSt10_HashtableISsSt4pairIKSstESaIS2_ENSt8__detail10_Select1stESt8equal_toISsESt4hashISsENS4_18_Mod_range_hashingENS4_20_Default_ranged_hashENS4_20_Prime_rehash_policyENS4_17_Hashtable_traitsILb1ELb0ELb1EEEE21_M_insert_unique_nodeEmmPNS4_10_Hash_nodeIS2_Lb1EEE@Base 0.1
 _ZNSt10_HashtableISsSt4pairIKSstESaIS2_ENSt8__detail10_Select1stESt8equal_toISsESt4hashISsENS4_18_Mod_range_hashingENS4_20_Default_ranged_hashENS4_20_Prime_rehash_policyENS4_17_Hashtable_traitsILb1ELb0ELb1EEEE5clearEv@Base 0.1
 _ZNSt10_HashtableIlSt4pairIKlN8osmscout13CoordDataFile10CoordEntryEESaIS5_ENSt8__detail10_Select1stESt8equal_toIlESt4hashIlENS7_18_Mod_range_hashingENS7_20_Default_ranged_hashENS7_20_Prime_rehash_policyENS7_17_Hashtable_traitsILb0ELb0ELb1EEEE10_M_emplaceIIS0_IlS4_EEEES0_INS7_14_Node_iteratorIS5_Lb0ELb0EEEbESt17integral_constantIbLb1EEDpOT_@Base 0.1
 _ZNSt10_HashtableIlSt4pairIKlN8osmscout13CoordDataFile10CoordEntryEESaIS5_ENSt8__detail10_Select1stESt8equal_toIlESt4hashIlENS7_18_Mod_range_hashingENS7_20_Default_ranged_hashENS7_20_Prime_rehash_policyENS7_17_Hashtable_traitsILb0ELb0ELb1EEEE10_M_emplaceIJS0_IlS4_EEEES0_INS7_14_Node_iteratorIS5_Lb0ELb0EEEbESt17integral_constantIbLb1EEDpOT_@Base 0.1
 _ZNSt10_HashtableIlSt4pairIKlN8osmscout13CoordDataFile10CoordEntryEESaIS5_ENSt8__detail10_Select1stESt8equal_toIlESt4hashIlENS7_18_Mod_range_hashingENS7_20_Default_ranged_hashENS7_20_Prime_rehash_policyENS7_17_Hashtable_traitsILb0ELb0ELb1EEEE21_M_insert_unique_nodeEmmPNS7_10_Hash_nodeIS5_Lb0EEE@Base 0.1
 _ZNSt10_HashtableIlSt4pairIKlN8osmscout13CoordDataFile10CoordEntryEESaIS5_ENSt8__detail10_Select1stESt8equal_toIlESt4hashIlENS7_18_Mod_range_hashingENS7_20_Default_ranged_hashENS7_20_Prime_rehash_policyENS7_17_Hashtable_traitsILb0ELb0ELb1EEEE9_M_rehashEmRKm@Base 0.1
 _ZNSt10_HashtableImSt4pairIKmN8osmscout3RefINS2_12IntersectionEEEESaIS6_ENSt8__detail10_Select1stESt8equal_toImESt4hashImENS8_18_Mod_range_hashingENS8_20_Default_ranged_hashENS8_20_Prime_rehash_policyENS8_17_Hashtable_traitsILb0ELb0ELb1EEEE21_M_insert_unique_nodeEmmPNS8_10_Hash_nodeIS6_Lb0EEE@Base 0.1
 _ZNSt10_HashtableImSt4pairIKmN8osmscout3RefINS2_12IntersectionEEEESaIS6_ENSt8__detail10_Select1stESt8equal_toImESt4hashImENS8_18_Mod_range_hashingENS8_20_Default_ranged_hashENS8_20_Prime_rehash_policyENS8_17_Hashtable_traitsILb0ELb0ELb1EEEE5clearEv@Base 0.1
 _ZNSt10_HashtableImSt4pairIKmN8osmscout3RefINS2_3WayEEEESaIS6_ENSt8__detail10_Select1stESt8equal_toImESt4hashImENS8_18_Mod_range_hashingENS8_20_Default_ranged_hashENS8_20_Prime_rehash_policyENS8_17_Hashtable_traitsILb0ELb0ELb1EEEE10_M_emplaceIIS0_ImS5_EEEES0_INS8_14_Node_iteratorIS6_Lb0ELb0EEEbESt17integral_constantIbLb1EEDpOT_@Base 0.1
 _ZNSt10_HashtableImSt4pairIKmN8osmscout3RefINS2_3WayEEEESaIS6_ENSt8__detail10_Select1stESt8equal_toImESt4hashImENS8_18_Mod_range_hashingENS8_20_Default_ranged_hashENS8_20_Prime_rehash_policyENS8_17_Hashtable_traitsILb0ELb0ELb1EEEE10_M_emplaceIJS0_ImS5_EEEES0_INS8_14_Node_iteratorIS6_Lb0ELb0EEEbESt17integral_constantIbLb1EEDpOT_@Base 0.1
 _ZNSt10_HashtableImSt4pairIKmN8osmscout3RefINS2_3WayEEEESaIS6_ENSt8__detail10_Select1stESt8equal_toImESt4hashImENS8_18_Mod_range_hashingENS8_20_Default_ranged_hashENS8_20_Prime_rehash_policyENS8_17_Hashtable_traitsILb0ELb0ELb1EEEE21_M_insert_unique_nodeEmmPNS8_10_Hash_nodeIS6_Lb0EEE@Base 0.1
 _ZNSt10_HashtableImSt4pairIKmN8osmscout3RefINS2_3WayEEEESaIS6_ENSt8__detail10_Select1stESt8equal_toImESt4hashImENS8_18_Mod_range_hashingENS8_20_Default_ranged_hashENS8_20_Prime_rehash_policyENS8_17_Hashtable_traitsILb0ELb0ELb1EEEE4findERS1_@Base 0.1
 _ZNSt10_HashtableImSt4pairIKmN8osmscout3RefINS2_3WayEEEESaIS6_ENSt8__detail10_Select1stESt8equal_toImESt4hashImENS8_18_Mod_range_hashingENS8_20_Default_ranged_hashENS8_20_Prime_rehash_policyENS8_17_Hashtable_traitsILb0ELb0ELb1EEEE5clearEv@Base 0.1
 _ZNSt10_HashtableImSt4pairIKmN8osmscout3RefINS2_4AreaEEEESaIS6_ENSt8__detail10_Select1stESt8equal_toImESt4hashImENS8_18_Mod_range_hashingENS8_20_Default_ranged_hashENS8_20_Prime_rehash_policyENS8_17_Hashtable_traitsILb0ELb0ELb1EEEE10_M_emplaceIIS0_ImS5_EEEES0_INS8_14_Node_iteratorIS6_Lb0ELb0EEEbESt17integral_constantIbLb1EEDpOT_@Base 0.1
 _ZNSt10_HashtableImSt4pairIKmN8osmscout3RefINS2_4AreaEEEESaIS6_ENSt8__detail10_Select1stESt8equal_toImESt4hashImENS8_18_Mod_range_hashingENS8_20_Default_ranged_hashENS8_20_Prime_rehash_policyENS8_17_Hashtable_traitsILb0ELb0ELb1EEEE10_M_emplaceIJS0_ImS5_EEEES0_INS8_14_Node_iteratorIS6_Lb0ELb0EEEbESt17integral_constantIbLb1EEDpOT_@Base 0.1
 _ZNSt10_HashtableImSt4pairIKmN8osmscout3RefINS2_4AreaEEEESaIS6_ENSt8__detail10_Select1stESt8equal_toImESt4hashImENS8_18_Mod_range_hashingENS8_20_Default_ranged_hashENS8_20_Prime_rehash_policyENS8_17_Hashtable_traitsILb0ELb0ELb1EEEE21_M_insert_unique_nodeEmmPNS8_10_Hash_nodeIS6_Lb0EEE@Base 0.1
 _ZNSt10_HashtableImSt4pairIKmN8osmscout3RefINS2_4AreaEEEESaIS6_ENSt8__detail10_Select1stESt8equal_toImESt4hashImENS8_18_Mod_range_hashingENS8_20_Default_ranged_hashENS8_20_Prime_rehash_policyENS8_17_Hashtable_traitsILb0ELb0ELb1EEEE4findERS1_@Base 0.1
 _ZNSt10_HashtableImSt4pairIKmN8osmscout3RefINS2_4AreaEEEESaIS6_ENSt8__detail10_Select1stESt8equal_toImESt4hashImENS8_18_Mod_range_hashingENS8_20_Default_ranged_hashENS8_20_Prime_rehash_policyENS8_17_Hashtable_traitsILb0ELb0ELb1EEEE5clearEv@Base 0.1
 _ZNSt10_HashtableImSt4pairIKmN8osmscout3RefINS2_4NodeEEEESaIS6_ENSt8__detail10_Select1stESt8equal_toImESt4hashImENS8_18_Mod_range_hashingENS8_20_Default_ranged_hashENS8_20_Prime_rehash_policyENS8_17_Hashtable_traitsILb0ELb0ELb1EEEE10_M_emplaceIIS0_ImS5_EEEES0_INS8_14_Node_iteratorIS6_Lb0ELb0EEEbESt17integral_constantIbLb1EEDpOT_@Base 0.1
 _ZNSt10_HashtableImSt4pairIKmN8osmscout3RefINS2_4NodeEEEESaIS6_ENSt8__detail10_Select1stESt8equal_toImESt4hashImENS8_18_Mod_range_hashingENS8_20_Default_ranged_hashENS8_20_Prime_rehash_policyENS8_17_Hashtable_traitsILb0ELb0ELb1EEEE10_M_emplaceIJS0_ImS5_EEEES0_INS8_14_Node_iteratorIS6_Lb0ELb0EEEbESt17integral_constantIbLb1EEDpOT_@Base 0.1
 _ZNSt10_HashtableImSt4pairIKmN8osmscout3RefINS2_4NodeEEEESaIS6_ENSt8__detail10_Select1stESt8equal_toImESt4hashImENS8_18_Mod_range_hashingENS8_20_Default_ranged_hashENS8_20_Prime_rehash_policyENS8_17_Hashtable_traitsILb0ELb0ELb1EEEE21_M_insert_unique_nodeEmmPNS8_10_Hash_nodeIS6_Lb0EEE@Base 0.1
 _ZNSt10_HashtableImSt4pairIKmN8osmscout3RefINS2_9RouteNodeEEEESaIS6_ENSt8__detail10_Select1stESt8equal_toImESt4hashImENS8_18_Mod_range_hashingENS8_20_Default_ranged_hashENS8_20_Prime_rehash_policyENS8_17_Hashtable_traitsILb0ELb0ELb1EEEE21_M_insert_unique_nodeEmmPNS8_10_Hash_nodeIS6_Lb0EEE@Base 0.1
 _ZNSt10_HashtableImSt4pairIKmN8osmscout3RefINS2_9RouteNodeEEEESaIS6_ENSt8__detail10_Select1stESt8equal_toImESt4hashImENS8_18_Mod_range_hashingENS8_20_Default_ranged_hashENS8_20_Prime_rehash_policyENS8_17_Hashtable_traitsILb0ELb0ELb1EEEE4findERS1_@Base 0.1
 _ZNSt10_HashtableImSt4pairIKmN8osmscout3RefINS2_9RouteNodeEEEESaIS6_ENSt8__detail10_Select1stESt8equal_toImESt4hashImENS8_18_Mod_range_hashingENS8_20_Default_ranged_hashENS8_20_Prime_rehash_policyENS8_17_Hashtable_traitsILb0ELb0ELb1EEEE5clearEv@Base 0.1
 _ZNSt10_HashtableImSt4pairIKmSsESaIS2_ENSt8__detail10_Select1stESt8equal_toImESt4hashImENS4_18_Mod_range_hashingENS4_20_Default_ranged_hashENS4_20_Prime_rehash_policyENS4_17_Hashtable_traitsILb0ELb0ELb1EEEE21_M_insert_unique_nodeEmmPNS4_10_Hash_nodeIS2_Lb0EEE@Base 0.1
 _ZNSt10_HashtableImSt4pairIKmSt10shared_ptrIN8osmscout14RoutingService5RNodeEEESaIS7_ENSt8__detail10_Select1stESt8equal_toImESt4hashImENS9_18_Mod_range_hashingENS9_20_Default_ranged_hashENS9_20_Prime_rehash_policyENS9_17_Hashtable_traitsILb0ELb0ELb1EEEE21_M_insert_unique_nodeEmmPNS9_10_Hash_nodeIS7_Lb0EEE@Base 0.1
 _ZNSt10_HashtableImSt4pairIKmSt10shared_ptrIN8osmscout14RoutingService5RNodeEEESaIS7_ENSt8__detail10_Select1stESt8equal_toImESt4hashImENS9_18_Mod_range_hashingENS9_20_Default_ranged_hashENS9_20_Prime_rehash_policyENS9_17_Hashtable_traitsILb0ELb0ELb1EEEE5clearEv@Base 0.1
 _ZNSt10_HashtableImSt4pairIKmSt10shared_ptrIN8osmscout14RoutingService5RNodeEEESaIS7_ENSt8__detail10_Select1stESt8equal_toImESt4hashImENS9_18_Mod_range_hashingENS9_20_Default_ranged_hashENS9_20_Prime_rehash_policyENS9_17_Hashtable_traitsILb0ELb0ELb1EEEE9_M_rehashEmRS1_@Base 0.1
 _ZNSt10_HashtableImSt4pairIKmSt14_List_iteratorIN8osmscout5CacheImNS3_13AreaAreaIndex9IndexCellEmE10CacheEntryEEESaISA_ENSt8__detail10_Select1stESt8equal_toImESt4hashImENSC_18_Mod_range_hashingENSC_20_Default_ranged_hashENSC_20_Prime_rehash_policyENSC_17_Hashtable_traitsILb0ELb0ELb1EEEE21_M_insert_unique_nodeEmmPNSC_10_Hash_nodeISA_Lb0EEE@Base 0.1
 _ZNSt10_HashtableImSt4pairIKmSt14_List_iteratorIN8osmscout5CacheImNS3_13AreaAreaIndex9IndexCellEmE10CacheEntryEEESaISA_ENSt8__detail10_Select1stESt8equal_toImESt4hashImENSC_18_Mod_range_hashingENSC_20_Default_ranged_hashENSC_20_Prime_rehash_policyENSC_17_Hashtable_traitsILb0ELb0ELb1EEEE4findERS1_@Base 0.1
 _ZNSt10_HashtableImSt4pairIKmSt14_List_iteratorIN8osmscout5CacheImNS3_13AreaAreaIndex9IndexCellEmE10CacheEntryEEESaISA_ENSt8__detail10_Select1stESt8equal_toImESt4hashImENSC_18_Mod_range_hashingENSC_20_Default_ranged_hashENSC_20_Prime_rehash_policyENSC_17_Hashtable_traitsILb0ELb0ELb1EEEE9_M_rehashEmRS1_@Base 0.1
 _ZNSt10_HashtableImSt4pairIKmSt14_List_iteratorIN8osmscout5CacheImNS3_3RefINS3_12IntersectionEEEmE10CacheEntryEEESaISB_ENSt8__detail10_Select1stESt8equal_toImESt4hashImENSD_18_Mod_range_hashingENSD_20_Default_ranged_hashENSD_20_Prime_rehash_policyENSD_17_Hashtable_traitsILb0ELb0ELb1EEEE21_M_insert_unique_nodeEmmPNSD_10_Hash_nodeISB_Lb0EEE@Base 0.1
 _ZNSt10_HashtableImSt4pairIKmSt14_List_iteratorIN8osmscout5CacheImNS3_3RefINS3_12IntersectionEEEmE10CacheEntryEEESaISB_ENSt8__detail10_Select1stESt8equal_toImESt4hashImENSD_18_Mod_range_hashingENSD_20_Default_ranged_hashENSD_20_Prime_rehash_policyENSD_17_Hashtable_traitsILb0ELb0ELb1EEEE4findERS1_@Base 0.1
 _ZNSt10_HashtableImSt4pairIKmSt14_List_iteratorIN8osmscout5CacheImNS3_3RefINS3_12IntersectionEEEmE10CacheEntryEEESaISB_ENSt8__detail10_Select1stESt8equal_toImESt4hashImENSD_18_Mod_range_hashingENSD_20_Default_ranged_hashENSD_20_Prime_rehash_policyENSD_17_Hashtable_traitsILb0ELb0ELb1EEEE5clearEv@Base 0.1
 _ZNSt10_HashtableImSt4pairIKmSt14_List_iteratorIN8osmscout5CacheImNS3_3RefINS3_12IntersectionEEEmE10CacheEntryEEESaISB_ENSt8__detail10_Select1stESt8equal_toImESt4hashImENSD_18_Mod_range_hashingENSD_20_Default_ranged_hashENSD_20_Prime_rehash_policyENSD_17_Hashtable_traitsILb0ELb0ELb1EEEE9_M_rehashEmRS1_@Base 0.1
 _ZNSt10_HashtableImSt4pairIKmSt14_List_iteratorIN8osmscout5CacheImNS3_3RefINS3_12NumericIndexImE4PageEEEmE10CacheEntryEEESaISD_ENSt8__detail10_Select1stESt8equal_toImESt4hashImENSF_18_Mod_range_hashingENSF_20_Default_ranged_hashENSF_20_Prime_rehash_policyENSF_17_Hashtable_traitsILb0ELb0ELb1EEEE16_M_allocate_nodeIIRKSD_EEEPNSF_10_Hash_nodeISD_Lb0EEEDpOT_@Base 0.1
 _ZNSt10_HashtableImSt4pairIKmSt14_List_iteratorIN8osmscout5CacheImNS3_3RefINS3_12NumericIndexImE4PageEEEmE10CacheEntryEEESaISD_ENSt8__detail10_Select1stESt8equal_toImESt4hashImENSF_18_Mod_range_hashingENSF_20_Default_ranged_hashENSF_20_Prime_rehash_policyENSF_17_Hashtable_traitsILb0ELb0ELb1EEEE16_M_allocate_nodeIJRKSD_EEEPNSF_10_Hash_nodeISD_Lb0EEEDpOT_@Base 0.1
 _ZNSt10_HashtableImSt4pairIKmSt14_List_iteratorIN8osmscout5CacheImNS3_3RefINS3_12NumericIndexImE4PageEEEmE10CacheEntryEEESaISD_ENSt8__detail10_Select1stESt8equal_toImESt4hashImENSF_18_Mod_range_hashingENSF_20_Default_ranged_hashENSF_20_Prime_rehash_policyENSF_17_Hashtable_traitsILb0ELb0ELb1EEEE21_M_insert_unique_nodeEmmPNSF_10_Hash_nodeISD_Lb0EEE@Base 0.1
 _ZNSt10_HashtableImSt4pairIKmSt14_List_iteratorIN8osmscout5CacheImNS3_3RefINS3_12NumericIndexImE4PageEEEmE10CacheEntryEEESaISD_ENSt8__detail10_Select1stESt8equal_toImESt4hashImENSF_18_Mod_range_hashingENSF_20_Default_ranged_hashENSF_20_Prime_rehash_policyENSF_17_Hashtable_traitsILb0ELb0ELb1EEEE4findERS1_@Base 0.1
 _ZNSt10_HashtableImSt4pairIKmSt14_List_iteratorIN8osmscout5CacheImNS3_3RefINS3_12NumericIndexImE4PageEEEmE10CacheEntryEEESaISD_ENSt8__detail10_Select1stESt8equal_toImESt4hashImENSF_18_Mod_range_hashingENSF_20_Default_ranged_hashENSF_20_Prime_rehash_policyENSF_17_Hashtable_traitsILb0ELb0ELb1EEEE5clearEv@Base 0.1
 _ZNSt10_HashtableImSt4pairIKmSt14_List_iteratorIN8osmscout5CacheImNS3_3RefINS3_12NumericIndexImE4PageEEEmE10CacheEntryEEESaISD_ENSt8__detail10_Select1stESt8equal_toImESt4hashImENSF_18_Mod_range_hashingENSF_20_Default_ranged_hashENSF_20_Prime_rehash_policyENSF_17_Hashtable_traitsILb0ELb0ELb1EEEE9_M_rehashEmRS1_@Base 0.1
 _ZNSt10_HashtableImSt4pairIKmSt14_List_iteratorIN8osmscout5CacheImNS3_3RefINS3_3WayEEEmE10CacheEntryEEESaISB_ENSt8__detail10_Select1stESt8equal_toImESt4hashImENSD_18_Mod_range_hashingENSD_20_Default_ranged_hashENSD_20_Prime_rehash_policyENSD_17_Hashtable_traitsILb0ELb0ELb1EEEE21_M_insert_unique_nodeEmmPNSD_10_Hash_nodeISB_Lb0EEE@Base 0.1
 _ZNSt10_HashtableImSt4pairIKmSt14_List_iteratorIN8osmscout5CacheImNS3_3RefINS3_3WayEEEmE10CacheEntryEEESaISB_ENSt8__detail10_Select1stESt8equal_toImESt4hashImENSD_18_Mod_range_hashingENSD_20_Default_ranged_hashENSD_20_Prime_rehash_policyENSD_17_Hashtable_traitsILb0ELb0ELb1EEEE4findERS1_@Base 0.1
 _ZNSt10_HashtableImSt4pairIKmSt14_List_iteratorIN8osmscout5CacheImNS3_3RefINS3_3WayEEEmE10CacheEntryEEESaISB_ENSt8__detail10_Select1stESt8equal_toImESt4hashImENSD_18_Mod_range_hashingENSD_20_Default_ranged_hashENSD_20_Prime_rehash_policyENSD_17_Hashtable_traitsILb0ELb0ELb1EEEE5clearEv@Base 0.1
 _ZNSt10_HashtableImSt4pairIKmSt14_List_iteratorIN8osmscout5CacheImNS3_3RefINS3_3WayEEEmE10CacheEntryEEESaISB_ENSt8__detail10_Select1stESt8equal_toImESt4hashImENSD_18_Mod_range_hashingENSD_20_Default_ranged_hashENSD_20_Prime_rehash_policyENSD_17_Hashtable_traitsILb0ELb0ELb1EEEE9_M_rehashEmRS1_@Base 0.1
 _ZNSt10_HashtableImSt4pairIKmSt14_List_iteratorIN8osmscout5CacheImNS3_3RefINS3_4AreaEEEmE10CacheEntryEEESaISB_ENSt8__detail10_Select1stESt8equal_toImESt4hashImENSD_18_Mod_range_hashingENSD_20_Default_ranged_hashENSD_20_Prime_rehash_policyENSD_17_Hashtable_traitsILb0ELb0ELb1EEEE21_M_insert_unique_nodeEmmPNSD_10_Hash_nodeISB_Lb0EEE@Base 0.1
 _ZNSt10_HashtableImSt4pairIKmSt14_List_iteratorIN8osmscout5CacheImNS3_3RefINS3_4AreaEEEmE10CacheEntryEEESaISB_ENSt8__detail10_Select1stESt8equal_toImESt4hashImENSD_18_Mod_range_hashingENSD_20_Default_ranged_hashENSD_20_Prime_rehash_policyENSD_17_Hashtable_traitsILb0ELb0ELb1EEEE4findERS1_@Base 0.1
 _ZNSt10_HashtableImSt4pairIKmSt14_List_iteratorIN8osmscout5CacheImNS3_3RefINS3_4AreaEEEmE10CacheEntryEEESaISB_ENSt8__detail10_Select1stESt8equal_toImESt4hashImENSD_18_Mod_range_hashingENSD_20_Default_ranged_hashENSD_20_Prime_rehash_policyENSD_17_Hashtable_traitsILb0ELb0ELb1EEEE5clearEv@Base 0.1
 _ZNSt10_HashtableImSt4pairIKmSt14_List_iteratorIN8osmscout5CacheImNS3_3RefINS3_4AreaEEEmE10CacheEntryEEESaISB_ENSt8__detail10_Select1stESt8equal_toImESt4hashImENSD_18_Mod_range_hashingENSD_20_Default_ranged_hashENSD_20_Prime_rehash_policyENSD_17_Hashtable_traitsILb0ELb0ELb1EEEE9_M_rehashEmRS1_@Base 0.1
 _ZNSt10_HashtableImSt4pairIKmSt14_List_iteratorIN8osmscout5CacheImNS3_3RefINS3_4NodeEEEmE10CacheEntryEEESaISB_ENSt8__detail10_Select1stESt8equal_toImESt4hashImENSD_18_Mod_range_hashingENSD_20_Default_ranged_hashENSD_20_Prime_rehash_policyENSD_17_Hashtable_traitsILb0ELb0ELb1EEEE21_M_insert_unique_nodeEmmPNSD_10_Hash_nodeISB_Lb0EEE@Base 0.1
 _ZNSt10_HashtableImSt4pairIKmSt14_List_iteratorIN8osmscout5CacheImNS3_3RefINS3_4NodeEEEmE10CacheEntryEEESaISB_ENSt8__detail10_Select1stESt8equal_toImESt4hashImENSD_18_Mod_range_hashingENSD_20_Default_ranged_hashENSD_20_Prime_rehash_policyENSD_17_Hashtable_traitsILb0ELb0ELb1EEEE4findERS1_@Base 0.1
 _ZNSt10_HashtableImSt4pairIKmSt14_List_iteratorIN8osmscout5CacheImNS3_3RefINS3_4NodeEEEmE10CacheEntryEEESaISB_ENSt8__detail10_Select1stESt8equal_toImESt4hashImENSD_18_Mod_range_hashingENSD_20_Default_ranged_hashENSD_20_Prime_rehash_policyENSD_17_Hashtable_traitsILb0ELb0ELb1EEEE5clearEv@Base 0.1
 _ZNSt10_HashtableImSt4pairIKmSt14_List_iteratorIN8osmscout5CacheImNS3_3RefINS3_4NodeEEEmE10CacheEntryEEESaISB_ENSt8__detail10_Select1stESt8equal_toImESt4hashImENSD_18_Mod_range_hashingENSD_20_Default_ranged_hashENSD_20_Prime_rehash_policyENSD_17_Hashtable_traitsILb0ELb0ELb1EEEE6rehashEm@Base 0.1
 _ZNSt10_HashtableImSt4pairIKmSt14_List_iteratorIN8osmscout5CacheImNS3_3RefINS3_9RouteNodeEEEmE10CacheEntryEEESaISB_ENSt8__detail10_Select1stESt8equal_toImESt4hashImENSD_18_Mod_range_hashingENSD_20_Default_ranged_hashENSD_20_Prime_rehash_policyENSD_17_Hashtable_traitsILb0ELb0ELb1EEEE21_M_insert_unique_nodeEmmPNSD_10_Hash_nodeISB_Lb0EEE@Base 0.1
 _ZNSt10_HashtableImSt4pairIKmSt14_List_iteratorIN8osmscout5CacheImNS3_3RefINS3_9RouteNodeEEEmE10CacheEntryEEESaISB_ENSt8__detail10_Select1stESt8equal_toImESt4hashImENSD_18_Mod_range_hashingENSD_20_Default_ranged_hashENSD_20_Prime_rehash_policyENSD_17_Hashtable_traitsILb0ELb0ELb1EEEE4findERS1_@Base 0.1
 _ZNSt10_HashtableImSt4pairIKmSt14_List_iteratorIN8osmscout5CacheImNS3_3RefINS3_9RouteNodeEEEmE10CacheEntryEEESaISB_ENSt8__detail10_Select1stESt8equal_toImESt4hashImENSD_18_Mod_range_hashingENSD_20_Default_ranged_hashENSD_20_Prime_rehash_policyENSD_17_Hashtable_traitsILb0ELb0ELb1EEEE5clearEv@Base 0.1
 _ZNSt10_HashtableImSt4pairIKmSt14_List_iteratorIN8osmscout5CacheImNS3_3RefINS3_9RouteNodeEEEmE10CacheEntryEEESaISB_ENSt8__detail10_Select1stESt8equal_toImESt4hashImENSD_18_Mod_range_hashingENSD_20_Default_ranged_hashENSD_20_Prime_rehash_policyENSD_17_Hashtable_traitsILb0ELb0ELb1EEEE9_M_rehashEmRS1_@Base 0.1
 _ZNSt10_HashtableImSt4pairIKmSt23_Rb_tree_const_iteratorISt10shared_ptrIN8osmscout14RoutingService5RNodeEEEESaIS9_ENSt8__detail10_Select1stESt8equal_toImESt4hashImENSB_18_Mod_range_hashingENSB_20_Default_ranged_hashENSB_20_Prime_rehash_policyENSB_17_Hashtable_traitsILb0ELb0ELb1EEEE21_M_insert_unique_nodeEmmPNSB_10_Hash_nodeIS9_Lb0EEE@Base 0.1
 _ZNSt10_HashtableImSt4pairIKmSt23_Rb_tree_const_iteratorISt10shared_ptrIN8osmscout14RoutingService5RNodeEEEESaIS9_ENSt8__detail10_Select1stESt8equal_toImESt4hashImENSB_18_Mod_range_hashingENSB_20_Default_ranged_hashENSB_20_Prime_rehash_policyENSB_17_Hashtable_traitsILb0ELb0ELb1EEEE5clearEv@Base 0.1
 _ZNSt10_HashtableImSt4pairIKmSt23_Rb_tree_const_iteratorISt10shared_ptrIN8osmscout14RoutingService5RNodeEEEESaIS9_ENSt8__detail10_Select1stESt8equal_toImESt4hashImENSB_18_Mod_range_hashingENSB_20_Default_ranged_hashENSB_20_Prime_rehash_policyENSB_17_Hashtable_traitsILb0ELb0ELb1EEEE9_M_rehashEmRS1_@Base 0.1
 _ZNSt10_HashtableImSt4pairIKmSt4listISt14_List_iteratorIN8osmscout13PolygonMerger4EdgeEESaIS7_EEESaISA_ENSt8__detail10_Select1stESt8equal_toImESt4hashImENSC_18_Mod_range_hashingENSC_20_Default_ranged_hashENSC_20_Prime_rehash_policyENSC_17_Hashtable_traitsILb0ELb0ELb1EEEE21_M_insert_unique_nodeEmmPNSC_10_Hash_nodeISA_Lb0EEE@Base 0.1
 _ZNSt10_HashtableImSt4pairIKmSt4listISt14_List_iteratorIN8osmscout13PolygonMerger4EdgeEESaIS7_EEESaISA_ENSt8__detail10_Select1stESt8equal_toImESt4hashImENSC_18_Mod_range_hashingENSC_20_Default_ranged_hashENSC_20_Prime_rehash_policyENSC_17_Hashtable_traitsILb0ELb0ELb1EEEE4findERS1_@Base 0.1
 _ZNSt10_HashtableImSt4pairIKmSt4listISt14_List_iteratorIN8osmscout13PolygonMerger4EdgeEESaIS7_EEESaISA_ENSt8__detail10_Select1stESt8equal_toImESt4hashImENSC_18_Mod_range_hashingENSC_20_Default_ranged_hashENSC_20_Prime_rehash_policyENSC_17_Hashtable_traitsILb0ELb0ELb1EEEE5clearEv@Base 0.1
 _ZNSt10_HashtableImSt4pairIKmSt6bitsetILm4096EEESaIS4_ENSt8__detail10_Select1stESt8equal_toImESt4hashImENS6_18_Mod_range_hashingENS6_20_Default_ranged_hashENS6_20_Prime_rehash_policyENS6_17_Hashtable_traitsILb0ELb0ELb1EEEE21_M_insert_unique_nodeEmmPNS6_10_Hash_nodeIS4_Lb0EEE@Base 0.1
 _ZNSt10_HashtableImSt4pairIKmSt6bitsetILm4096EEESaIS4_ENSt8__detail10_Select1stESt8equal_toImESt4hashImENS6_18_Mod_range_hashingENS6_20_Default_ranged_hashENS6_20_Prime_rehash_policyENS6_17_Hashtable_traitsILb0ELb0ELb1EEEE5clearEv@Base 0.1
 _ZNSt10_HashtableImSt4pairIKmmESaIS2_ENSt8__detail10_Select1stESt8equal_toImESt4hashImENS4_18_Mod_range_hashingENS4_20_Default_ranged_hashENS4_20_Prime_rehash_policyENS4_17_Hashtable_traitsILb0ELb0ELb1EEEE10_M_emplaceIIS0_ImmEEEES0_INS4_14_Node_iteratorIS2_Lb0ELb0EEEbESt17integral_constantIbLb1EEDpOT_@Base 0.1
 _ZNSt10_HashtableImSt4pairIKmmESaIS2_ENSt8__detail10_Select1stESt8equal_toImESt4hashImENS4_18_Mod_range_hashingENS4_20_Default_ranged_hashENS4_20_Prime_rehash_policyENS4_17_Hashtable_traitsILb0ELb0ELb1EEEE10_M_emplaceIJS0_ImmEEEES0_INS4_14_Node_iteratorIS2_Lb0ELb0EEEbESt17integral_constantIbLb1EEDpOT_@Base 0.1
 _ZNSt10_HashtableImSt4pairIKmmESaIS2_ENSt8__detail10_Select1stESt8equal_toImESt4hashImENS4_18_Mod_range_hashingENS4_20_Default_ranged_hashENS4_20_Prime_rehash_policyENS4_17_Hashtable_traitsILb0ELb0ELb1EEEE21_M_insert_unique_nodeEmmPNS4_10_Hash_nodeIS2_Lb0EEE@Base 0.1
 _ZNSt10_HashtableImSt4pairIKmmESaIS2_ENSt8__detail10_Select1stESt8equal_toImESt4hashImENS4_18_Mod_range_hashingENS4_20_Default_ranged_hashENS4_20_Prime_rehash_policyENS4_17_Hashtable_traitsILb0ELb0ELb1EEEE4findERS1_@Base 0.1
 _ZNSt10_HashtableImSt4pairIKmmESaIS2_ENSt8__detail10_Select1stESt8equal_toImESt4hashImENS4_18_Mod_range_hashingENS4_20_Default_ranged_hashENS4_20_Prime_rehash_policyENS4_17_Hashtable_traitsILb0ELb0ELb1EEEE5clearEv@Base 0.1
 _ZNSt10_HashtableImmSaImENSt8__detail9_IdentityESt8equal_toImESt4hashImENS1_18_Mod_range_hashingENS1_20_Default_ranged_hashENS1_20_Prime_rehash_policyENS1_17_Hashtable_traitsILb0ELb1ELb1EEEE21_M_insert_unique_nodeEmmPNS1_10_Hash_nodeImLb0EEE@Base 0.1
 _ZNSt10_HashtableImmSaImENSt8__detail9_IdentityESt8equal_toImESt4hashImENS1_18_Mod_range_hashingENS1_20_Default_ranged_hashENS1_20_Prime_rehash_policyENS1_17_Hashtable_traitsILb0ELb1ELb1EEEE5clearEv@Base 0.1
 _ZNSt10_HashtableImmSaImENSt8__detail9_IdentityESt8equal_toImESt4hashImENS1_18_Mod_range_hashingENS1_20_Default_ranged_hashENS1_20_Prime_rehash_policyENS1_17_Hashtable_traitsILb0ELb1ELb1EEEE9_M_rehashEmRKm@Base 0.1
 _ZNSt10_HashtableItSt4pairIKtjESaIS2_ENSt8__detail10_Select1stESt8equal_toItESt4hashItENS4_18_Mod_range_hashingENS4_20_Default_ranged_hashENS4_20_Prime_rehash_policyENS4_17_Hashtable_traitsILb0ELb0ELb1EEEE10_M_emplaceIIS0_ItjEEEES0_INS4_14_Node_iteratorIS2_Lb0ELb0EEEbESt17integral_constantIbLb1EEDpOT_@Base 0.1
 _ZNSt10_HashtableItSt4pairIKtjESaIS2_ENSt8__detail10_Select1stESt8equal_toItESt4hashItENS4_18_Mod_range_hashingENS4_20_Default_ranged_hashENS4_20_Prime_rehash_policyENS4_17_Hashtable_traitsILb0ELb0ELb1EEEE10_M_emplaceIJS0_ItjEEEES0_INS4_14_Node_iteratorIS2_Lb0ELb0EEEbESt17integral_constantIbLb1EEDpOT_@Base 0.1
 _ZNSt10_HashtableItSt4pairIKtjESaIS2_ENSt8__detail10_Select1stESt8equal_toItESt4hashItENS4_18_Mod_range_hashingENS4_20_Default_ranged_hashENS4_20_Prime_rehash_policyENS4_17_Hashtable_traitsILb0ELb0ELb1EEEE21_M_insert_unique_nodeEmmPNS4_10_Hash_nodeIS2_Lb0EEE@Base 0.1
 _ZNSt10_HashtableItSt4pairIKtjESaIS2_ENSt8__detail10_Select1stESt8equal_toItESt4hashItENS4_18_Mod_range_hashingENS4_20_Default_ranged_hashENS4_20_Prime_rehash_policyENS4_17_Hashtable_traitsILb0ELb0ELb1EEEE5clearEv@Base 0.1
 _ZNSt10_List_baseIN8osmscout16RouteDescription4NodeESaIS2_EE8_M_clearEv@Base 0.1
 _ZNSt10_List_baseIN8osmscout18AddressListVisitor13AddressResultESaIS2_EE8_M_clearEv@Base 0.1
 _ZNSt10_List_baseIN8osmscout20LocationSearchResult5EntryESaIS2_EE8_M_clearEv@Base 0.1
 _ZNSt10_List_baseIN8osmscout3RefINS0_12TagConditionEEESaIS3_EE8_M_clearEv@Base 0.1
 _ZNSt10_List_baseIN8osmscout5CacheImNS0_13AreaAreaIndex9IndexCellEmE10CacheEntryESaIS5_EE8_M_clearEv@Base 0.1
 _ZNSt10_List_baseIN8osmscout5CacheImNS0_3RefINS0_12IntersectionEEEmE10CacheEntryESaIS6_EE8_M_clearEv@Base 0.1
 _ZNSt10_List_baseIN8osmscout5CacheImNS0_3RefINS0_12NumericIndexImE4PageEEEmE10CacheEntryESaIS8_EE8_M_clearEv@Base 0.1
 _ZNSt10_List_baseIN8osmscout5CacheImNS0_3RefINS0_3WayEEEmE10CacheEntryESaIS6_EE8_M_clearEv@Base 0.1
 _ZNSt10_List_baseIN8osmscout5CacheImNS0_3RefINS0_4AreaEEEmE10CacheEntryESaIS6_EE8_M_clearEv@Base 0.1
 _ZNSt10_List_baseIN8osmscout5CacheImNS0_3RefINS0_4NodeEEEmE10CacheEntryESaIS6_EE8_M_clearEv@Base 0.1
 _ZNSt10_List_baseIN8osmscout5CacheImNS0_3RefINS0_9RouteNodeEEEmE10CacheEntryESaIS6_EE8_M_clearEv@Base 0.1
 _ZNSt10_List_baseIN8osmscout8TypeInfo13TypeConditionESaIS2_EE8_M_clearEv@Base 0.1
 _ZNSt10_List_baseIN8osmscout9RouteData10RouteEntryESaIS2_EE8_M_clearEv@Base 0.1
 _ZNSt10_List_baseISsSaISsEE8_M_clearEv@Base 0.1
 _ZNSt10_List_baseISt10shared_ptrIN8osmscout14RoutingService5RNodeEESaIS4_EE8_M_clearEv@Base 0.1
 _ZNSt10_List_baseISt4listIN8osmscout13PolygonMerger4EdgeESaIS3_EESaIS5_EE8_M_clearEv@Base 0.1
 _ZNSt10_List_baseISt4listISsSaISsEESaIS2_EE8_M_clearEv@Base 0.1
 _ZNSt12__shared_ptrIN8osmscout11AdminRegionELN9__gnu_cxx12_Lock_policyE2EEC1ISaIS1_EIRKS1_EEESt19_Sp_make_shared_tagRKT_DpOT0_@Base 0.1
 _ZNSt12__shared_ptrIN8osmscout11AdminRegionELN9__gnu_cxx12_Lock_policyE2EEC1ISaIS1_EJRKS1_EEESt19_Sp_make_shared_tagRKT_DpOT0_@Base 0.1
 _ZNSt12__shared_ptrIN8osmscout11AdminRegionELN9__gnu_cxx12_Lock_policyE2EEC2ISaIS1_EIRKS1_EEESt19_Sp_make_shared_tagRKT_DpOT0_@Base 0.1
 _ZNSt12__shared_ptrIN8osmscout11AdminRegionELN9__gnu_cxx12_Lock_policyE2EEC2ISaIS1_EJRKS1_EEESt19_Sp_make_shared_tagRKT_DpOT0_@Base 0.1
 _ZNSt12__shared_ptrIN8osmscout14RoutingService5RNodeELN9__gnu_cxx12_Lock_policyE2EEC1ISaIS2_EIRmRNS0_3RefINS0_9RouteNodeEEERKNS0_13ObjectFileRefEEEESt19_Sp_make_shared_tagRKT_DpOT0_@Base 0.1
 _ZNSt12__shared_ptrIN8osmscout14RoutingService5RNodeELN9__gnu_cxx12_Lock_policyE2EEC1ISaIS2_EJRmRNS0_3RefINS0_9RouteNodeEEERKNS0_13ObjectFileRefEEEESt19_Sp_make_shared_tagRKT_DpOT0_@Base 0.1
 _ZNSt12__shared_ptrIN8osmscout14RoutingService5RNodeELN9__gnu_cxx12_Lock_policyE2EEC2ISaIS2_EIRmRNS0_3RefINS0_9RouteNodeEEERKNS0_13ObjectFileRefEEEESt19_Sp_make_shared_tagRKT_DpOT0_@Base 0.1
 _ZNSt12__shared_ptrIN8osmscout14RoutingService5RNodeELN9__gnu_cxx12_Lock_policyE2EEC2ISaIS2_EJRmRNS0_3RefINS0_9RouteNodeEEERKNS0_13ObjectFileRefEEEESt19_Sp_make_shared_tagRKT_DpOT0_@Base 0.1
 _ZNSt12__shared_ptrIN8osmscout8DataFileINS0_3WayEEELN9__gnu_cxx12_Lock_policyE2EEC1ISaIS3_EIRA9_KcmEEESt19_Sp_make_shared_tagRKT_DpOT0_@Base 0.1
 _ZNSt12__shared_ptrIN8osmscout8DataFileINS0_3WayEEELN9__gnu_cxx12_Lock_policyE2EEC1ISaIS3_EJRA9_KcmEEESt19_Sp_make_shared_tagRKT_DpOT0_@Base 0.1
 _ZNSt12__shared_ptrIN8osmscout8DataFileINS0_3WayEEELN9__gnu_cxx12_Lock_policyE2EEC2ISaIS3_EIRA9_KcmEEESt19_Sp_make_shared_tagRKT_DpOT0_@Base 0.1
 _ZNSt12__shared_ptrIN8osmscout8DataFileINS0_3WayEEELN9__gnu_cxx12_Lock_policyE2EEC2ISaIS3_EJRA9_KcmEEESt19_Sp_make_shared_tagRKT_DpOT0_@Base 0.1
 _ZNSt12__shared_ptrIN8osmscout8DataFileINS0_4AreaEEELN9__gnu_cxx12_Lock_policyE2EEC1ISaIS3_EIRA10_KcmEEESt19_Sp_make_shared_tagRKT_DpOT0_@Base 0.1
 _ZNSt12__shared_ptrIN8osmscout8DataFileINS0_4AreaEEELN9__gnu_cxx12_Lock_policyE2EEC1ISaIS3_EJRA10_KcmEEESt19_Sp_make_shared_tagRKT_DpOT0_@Base 0.1
 _ZNSt12__shared_ptrIN8osmscout8DataFileINS0_4AreaEEELN9__gnu_cxx12_Lock_policyE2EEC2ISaIS3_EIRA10_KcmEEESt19_Sp_make_shared_tagRKT_DpOT0_@Base 0.1
 _ZNSt12__shared_ptrIN8osmscout8DataFileINS0_4AreaEEELN9__gnu_cxx12_Lock_policyE2EEC2ISaIS3_EJRA10_KcmEEESt19_Sp_make_shared_tagRKT_DpOT0_@Base 0.1
 _ZNSt14__shared_countILN9__gnu_cxx12_Lock_policyE2EEaSERKS2_@Base 0.1
 _ZNSt15_Sp_counted_ptrIPN8osmscout8TypeInfoELN9__gnu_cxx12_Lock_policyE2EE10_M_destroyEv@Base 0.1
 _ZNSt15_Sp_counted_ptrIPN8osmscout8TypeInfoELN9__gnu_cxx12_Lock_policyE2EE10_M_disposeEv@Base 0.1
 _ZNSt15_Sp_counted_ptrIPN8osmscout8TypeInfoELN9__gnu_cxx12_Lock_policyE2EE14_M_get_deleterERKSt9type_info@Base 0.1
 _ZNSt15_Sp_counted_ptrIPN8osmscout8TypeInfoELN9__gnu_cxx12_Lock_policyE2EED0Ev@Base 0.1
 _ZNSt15_Sp_counted_ptrIPN8osmscout8TypeInfoELN9__gnu_cxx12_Lock_policyE2EED1Ev@Base 0.1
 _ZNSt15_Sp_counted_ptrIPN8osmscout8TypeInfoELN9__gnu_cxx12_Lock_policyE2EED2Ev@Base 0.1
 _ZNSt15basic_stringbufIcSt11char_traitsIcESaIcEED0Ev@Base 0.1
 _ZNSt15basic_stringbufIcSt11char_traitsIcESaIcEED1Ev@Base 0.1
 _ZNSt15basic_stringbufIcSt11char_traitsIcESaIcEED2Ev@Base 0.1
 _ZNSt16_Sp_counted_baseILN9__gnu_cxx12_Lock_policyE2EE10_M_destroyEv@Base 0.1
 _ZNSt16_Sp_counted_baseILN9__gnu_cxx12_Lock_policyE2EE10_M_releaseEv@Base 0.1
 _ZNSt16_Sp_counted_baseILN9__gnu_cxx12_Lock_policyE2EED0Ev@Base 0.1
 _ZNSt16_Sp_counted_baseILN9__gnu_cxx12_Lock_policyE2EED1Ev@Base 0.1
 _ZNSt16_Sp_counted_baseILN9__gnu_cxx12_Lock_policyE2EED2Ev@Base 0.1
 _ZNSt23_Sp_counted_ptr_inplaceIN8osmscout10TypeConfigESaIS1_ELN9__gnu_cxx12_Lock_policyE2EE10_M_destroyEv@Base 0.1
 _ZNSt23_Sp_counted_ptr_inplaceIN8osmscout10TypeConfigESaIS1_ELN9__gnu_cxx12_Lock_policyE2EE10_M_disposeEv@Base 0.1
 _ZNSt23_Sp_counted_ptr_inplaceIN8osmscout10TypeConfigESaIS1_ELN9__gnu_cxx12_Lock_policyE2EE14_M_get_deleterERKSt9type_info@Base 0.1
 _ZNSt23_Sp_counted_ptr_inplaceIN8osmscout10TypeConfigESaIS1_ELN9__gnu_cxx12_Lock_policyE2EED0Ev@Base 0.1
 _ZNSt23_Sp_counted_ptr_inplaceIN8osmscout10TypeConfigESaIS1_ELN9__gnu_cxx12_Lock_policyE2EED1Ev@Base 0.1
 _ZNSt23_Sp_counted_ptr_inplaceIN8osmscout10TypeConfigESaIS1_ELN9__gnu_cxx12_Lock_policyE2EED2Ev@Base 0.1
 _ZNSt23_Sp_counted_ptr_inplaceIN8osmscout10WaterIndexESaIS1_ELN9__gnu_cxx12_Lock_policyE2EE10_M_destroyEv@Base 0.1
 _ZNSt23_Sp_counted_ptr_inplaceIN8osmscout10WaterIndexESaIS1_ELN9__gnu_cxx12_Lock_policyE2EE10_M_disposeEv@Base 0.1
 _ZNSt23_Sp_counted_ptr_inplaceIN8osmscout10WaterIndexESaIS1_ELN9__gnu_cxx12_Lock_policyE2EE14_M_get_deleterERKSt9type_info@Base 0.1
 _ZNSt23_Sp_counted_ptr_inplaceIN8osmscout10WaterIndexESaIS1_ELN9__gnu_cxx12_Lock_policyE2EED0Ev@Base 0.1
 _ZNSt23_Sp_counted_ptr_inplaceIN8osmscout10WaterIndexESaIS1_ELN9__gnu_cxx12_Lock_policyE2EED1Ev@Base 0.1
 _ZNSt23_Sp_counted_ptr_inplaceIN8osmscout10WaterIndexESaIS1_ELN9__gnu_cxx12_Lock_policyE2EED2Ev@Base 0.1
 _ZNSt23_Sp_counted_ptr_inplaceIN8osmscout11AdminRegionESaIS1_ELN9__gnu_cxx12_Lock_policyE2EE10_M_destroyEv@Base 0.1
 _ZNSt23_Sp_counted_ptr_inplaceIN8osmscout11AdminRegionESaIS1_ELN9__gnu_cxx12_Lock_policyE2EE10_M_disposeEv@Base 0.1
 _ZNSt23_Sp_counted_ptr_inplaceIN8osmscout11AdminRegionESaIS1_ELN9__gnu_cxx12_Lock_policyE2EE14_M_get_deleterERKSt9type_info@Base 0.1
 _ZNSt23_Sp_counted_ptr_inplaceIN8osmscout11AdminRegionESaIS1_ELN9__gnu_cxx12_Lock_policyE2EED0Ev@Base 0.1
 _ZNSt23_Sp_counted_ptr_inplaceIN8osmscout11AdminRegionESaIS1_ELN9__gnu_cxx12_Lock_policyE2EED1Ev@Base 0.1
 _ZNSt23_Sp_counted_ptr_inplaceIN8osmscout11AdminRegionESaIS1_ELN9__gnu_cxx12_Lock_policyE2EED2Ev@Base 0.1
 _ZNSt23_Sp_counted_ptr_inplaceIN8osmscout12AreaWayIndexESaIS1_ELN9__gnu_cxx12_Lock_policyE2EE10_M_destroyEv@Base 0.1
 _ZNSt23_Sp_counted_ptr_inplaceIN8osmscout12AreaWayIndexESaIS1_ELN9__gnu_cxx12_Lock_policyE2EE10_M_disposeEv@Base 0.1
 _ZNSt23_Sp_counted_ptr_inplaceIN8osmscout12AreaWayIndexESaIS1_ELN9__gnu_cxx12_Lock_policyE2EE14_M_get_deleterERKSt9type_info@Base 0.1
 _ZNSt23_Sp_counted_ptr_inplaceIN8osmscout12AreaWayIndexESaIS1_ELN9__gnu_cxx12_Lock_policyE2EED0Ev@Base 0.1
 _ZNSt23_Sp_counted_ptr_inplaceIN8osmscout12AreaWayIndexESaIS1_ELN9__gnu_cxx12_Lock_policyE2EED1Ev@Base 0.1
 _ZNSt23_Sp_counted_ptr_inplaceIN8osmscout12AreaWayIndexESaIS1_ELN9__gnu_cxx12_Lock_policyE2EED2Ev@Base 0.1
 _ZNSt23_Sp_counted_ptr_inplaceIN8osmscout12NodeDataFileESaIS1_ELN9__gnu_cxx12_Lock_policyE2EE10_M_destroyEv@Base 0.1
 _ZNSt23_Sp_counted_ptr_inplaceIN8osmscout12NodeDataFileESaIS1_ELN9__gnu_cxx12_Lock_policyE2EE10_M_disposeEv@Base 0.1
 _ZNSt23_Sp_counted_ptr_inplaceIN8osmscout12NodeDataFileESaIS1_ELN9__gnu_cxx12_Lock_policyE2EE14_M_get_deleterERKSt9type_info@Base 0.1
 _ZNSt23_Sp_counted_ptr_inplaceIN8osmscout12NodeDataFileESaIS1_ELN9__gnu_cxx12_Lock_policyE2EED0Ev@Base 0.1
 _ZNSt23_Sp_counted_ptr_inplaceIN8osmscout12NodeDataFileESaIS1_ELN9__gnu_cxx12_Lock_policyE2EED1Ev@Base 0.1
 _ZNSt23_Sp_counted_ptr_inplaceIN8osmscout12NodeDataFileESaIS1_ELN9__gnu_cxx12_Lock_policyE2EED2Ev@Base 0.1
 _ZNSt23_Sp_counted_ptr_inplaceIN8osmscout13AreaAreaIndexESaIS1_ELN9__gnu_cxx12_Lock_policyE2EE10_M_destroyEv@Base 0.1
 _ZNSt23_Sp_counted_ptr_inplaceIN8osmscout13AreaAreaIndexESaIS1_ELN9__gnu_cxx12_Lock_policyE2EE10_M_disposeEv@Base 0.1
 _ZNSt23_Sp_counted_ptr_inplaceIN8osmscout13AreaAreaIndexESaIS1_ELN9__gnu_cxx12_Lock_policyE2EE14_M_get_deleterERKSt9type_info@Base 0.1
 _ZNSt23_Sp_counted_ptr_inplaceIN8osmscout13AreaAreaIndexESaIS1_ELN9__gnu_cxx12_Lock_policyE2EED0Ev@Base 0.1
 _ZNSt23_Sp_counted_ptr_inplaceIN8osmscout13AreaAreaIndexESaIS1_ELN9__gnu_cxx12_Lock_policyE2EED1Ev@Base 0.1
 _ZNSt23_Sp_counted_ptr_inplaceIN8osmscout13AreaAreaIndexESaIS1_ELN9__gnu_cxx12_Lock_policyE2EED2Ev@Base 0.1
 _ZNSt23_Sp_counted_ptr_inplaceIN8osmscout13AreaNodeIndexESaIS1_ELN9__gnu_cxx12_Lock_policyE2EE10_M_destroyEv@Base 0.1
 _ZNSt23_Sp_counted_ptr_inplaceIN8osmscout13AreaNodeIndexESaIS1_ELN9__gnu_cxx12_Lock_policyE2EE10_M_disposeEv@Base 0.1
 _ZNSt23_Sp_counted_ptr_inplaceIN8osmscout13AreaNodeIndexESaIS1_ELN9__gnu_cxx12_Lock_policyE2EE14_M_get_deleterERKSt9type_info@Base 0.1
 _ZNSt23_Sp_counted_ptr_inplaceIN8osmscout13AreaNodeIndexESaIS1_ELN9__gnu_cxx12_Lock_policyE2EED0Ev@Base 0.1
 _ZNSt23_Sp_counted_ptr_inplaceIN8osmscout13AreaNodeIndexESaIS1_ELN9__gnu_cxx12_Lock_policyE2EED1Ev@Base 0.1
 _ZNSt23_Sp_counted_ptr_inplaceIN8osmscout13AreaNodeIndexESaIS1_ELN9__gnu_cxx12_Lock_policyE2EED2Ev@Base 0.1
 _ZNSt23_Sp_counted_ptr_inplaceIN8osmscout13LocationIndexESaIS1_ELN9__gnu_cxx12_Lock_policyE2EE10_M_destroyEv@Base 0.1
 _ZNSt23_Sp_counted_ptr_inplaceIN8osmscout13LocationIndexESaIS1_ELN9__gnu_cxx12_Lock_policyE2EE10_M_disposeEv@Base 0.1
 _ZNSt23_Sp_counted_ptr_inplaceIN8osmscout13LocationIndexESaIS1_ELN9__gnu_cxx12_Lock_policyE2EE14_M_get_deleterERKSt9type_info@Base 0.1
 _ZNSt23_Sp_counted_ptr_inplaceIN8osmscout13LocationIndexESaIS1_ELN9__gnu_cxx12_Lock_policyE2EED0Ev@Base 0.1
 _ZNSt23_Sp_counted_ptr_inplaceIN8osmscout13LocationIndexESaIS1_ELN9__gnu_cxx12_Lock_policyE2EED1Ev@Base 0.1
 _ZNSt23_Sp_counted_ptr_inplaceIN8osmscout13LocationIndexESaIS1_ELN9__gnu_cxx12_Lock_policyE2EED2Ev@Base 0.1
 _ZNSt23_Sp_counted_ptr_inplaceIN8osmscout14RoutingService5RNodeESaIS2_ELN9__gnu_cxx12_Lock_policyE2EE10_M_destroyEv@Base 0.1
 _ZNSt23_Sp_counted_ptr_inplaceIN8osmscout14RoutingService5RNodeESaIS2_ELN9__gnu_cxx12_Lock_policyE2EE10_M_disposeEv@Base 0.1
 _ZNSt23_Sp_counted_ptr_inplaceIN8osmscout14RoutingService5RNodeESaIS2_ELN9__gnu_cxx12_Lock_policyE2EE14_M_get_deleterERKSt9type_info@Base 0.1
 _ZNSt23_Sp_counted_ptr_inplaceIN8osmscout14RoutingService5RNodeESaIS2_ELN9__gnu_cxx12_Lock_policyE2EED0Ev@Base 0.1
 _ZNSt23_Sp_counted_ptr_inplaceIN8osmscout14RoutingService5RNodeESaIS2_ELN9__gnu_cxx12_Lock_policyE2EED1Ev@Base 0.1
 _ZNSt23_Sp_counted_ptr_inplaceIN8osmscout14RoutingService5RNodeESaIS2_ELN9__gnu_cxx12_Lock_policyE2EED2Ev@Base 0.1
 _ZNSt23_Sp_counted_ptr_inplaceIN8osmscout19OptimizeWaysLowZoomESaIS1_ELN9__gnu_cxx12_Lock_policyE2EE10_M_destroyEv@Base 0.1
 _ZNSt23_Sp_counted_ptr_inplaceIN8osmscout19OptimizeWaysLowZoomESaIS1_ELN9__gnu_cxx12_Lock_policyE2EE10_M_disposeEv@Base 0.1
 _ZNSt23_Sp_counted_ptr_inplaceIN8osmscout19OptimizeWaysLowZoomESaIS1_ELN9__gnu_cxx12_Lock_policyE2EE14_M_get_deleterERKSt9type_info@Base 0.1
 _ZNSt23_Sp_counted_ptr_inplaceIN8osmscout19OptimizeWaysLowZoomESaIS1_ELN9__gnu_cxx12_Lock_policyE2EED0Ev@Base 0.1
 _ZNSt23_Sp_counted_ptr_inplaceIN8osmscout19OptimizeWaysLowZoomESaIS1_ELN9__gnu_cxx12_Lock_policyE2EED1Ev@Base 0.1
 _ZNSt23_Sp_counted_ptr_inplaceIN8osmscout19OptimizeWaysLowZoomESaIS1_ELN9__gnu_cxx12_Lock_policyE2EED2Ev@Base 0.1
 _ZNSt23_Sp_counted_ptr_inplaceIN8osmscout20OptimizeAreasLowZoomESaIS1_ELN9__gnu_cxx12_Lock_policyE2EE10_M_destroyEv@Base 0.1
 _ZNSt23_Sp_counted_ptr_inplaceIN8osmscout20OptimizeAreasLowZoomESaIS1_ELN9__gnu_cxx12_Lock_policyE2EE10_M_disposeEv@Base 0.1
 _ZNSt23_Sp_counted_ptr_inplaceIN8osmscout20OptimizeAreasLowZoomESaIS1_ELN9__gnu_cxx12_Lock_policyE2EE14_M_get_deleterERKSt9type_info@Base 0.1
 _ZNSt23_Sp_counted_ptr_inplaceIN8osmscout20OptimizeAreasLowZoomESaIS1_ELN9__gnu_cxx12_Lock_policyE2EED0Ev@Base 0.1
 _ZNSt23_Sp_counted_ptr_inplaceIN8osmscout20OptimizeAreasLowZoomESaIS1_ELN9__gnu_cxx12_Lock_policyE2EED1Ev@Base 0.1
 _ZNSt23_Sp_counted_ptr_inplaceIN8osmscout20OptimizeAreasLowZoomESaIS1_ELN9__gnu_cxx12_Lock_policyE2EED2Ev@Base 0.1
 _ZNSt23_Sp_counted_ptr_inplaceIN8osmscout3POIESaIS1_ELN9__gnu_cxx12_Lock_policyE2EE10_M_destroyEv@Base 0.1
 _ZNSt23_Sp_counted_ptr_inplaceIN8osmscout3POIESaIS1_ELN9__gnu_cxx12_Lock_policyE2EE10_M_disposeEv@Base 0.1
 _ZNSt23_Sp_counted_ptr_inplaceIN8osmscout3POIESaIS1_ELN9__gnu_cxx12_Lock_policyE2EE14_M_get_deleterERKSt9type_info@Base 0.1
 _ZNSt23_Sp_counted_ptr_inplaceIN8osmscout3POIESaIS1_ELN9__gnu_cxx12_Lock_policyE2EED0Ev@Base 0.1
 _ZNSt23_Sp_counted_ptr_inplaceIN8osmscout3POIESaIS1_ELN9__gnu_cxx12_Lock_policyE2EED1Ev@Base 0.1
 _ZNSt23_Sp_counted_ptr_inplaceIN8osmscout3POIESaIS1_ELN9__gnu_cxx12_Lock_policyE2EED2Ev@Base 0.1
 _ZNSt23_Sp_counted_ptr_inplaceIN8osmscout7AddressESaIS1_ELN9__gnu_cxx12_Lock_policyE2EE10_M_destroyEv@Base 0.1
 _ZNSt23_Sp_counted_ptr_inplaceIN8osmscout7AddressESaIS1_ELN9__gnu_cxx12_Lock_policyE2EE10_M_disposeEv@Base 0.1
 _ZNSt23_Sp_counted_ptr_inplaceIN8osmscout7AddressESaIS1_ELN9__gnu_cxx12_Lock_policyE2EE14_M_get_deleterERKSt9type_info@Base 0.1
 _ZNSt23_Sp_counted_ptr_inplaceIN8osmscout7AddressESaIS1_ELN9__gnu_cxx12_Lock_policyE2EED0Ev@Base 0.1
 _ZNSt23_Sp_counted_ptr_inplaceIN8osmscout7AddressESaIS1_ELN9__gnu_cxx12_Lock_policyE2EED1Ev@Base 0.1
 _ZNSt23_Sp_counted_ptr_inplaceIN8osmscout7AddressESaIS1_ELN9__gnu_cxx12_Lock_policyE2EED2Ev@Base 0.1
 _ZNSt23_Sp_counted_ptr_inplaceIN8osmscout8DataFileINS0_3WayEEESaIS3_ELN9__gnu_cxx12_Lock_policyE2EE10_M_destroyEv@Base 0.1
 _ZNSt23_Sp_counted_ptr_inplaceIN8osmscout8DataFileINS0_3WayEEESaIS3_ELN9__gnu_cxx12_Lock_policyE2EE10_M_disposeEv@Base 0.1
 _ZNSt23_Sp_counted_ptr_inplaceIN8osmscout8DataFileINS0_3WayEEESaIS3_ELN9__gnu_cxx12_Lock_policyE2EE14_M_get_deleterERKSt9type_info@Base 0.1
 _ZNSt23_Sp_counted_ptr_inplaceIN8osmscout8DataFileINS0_3WayEEESaIS3_ELN9__gnu_cxx12_Lock_policyE2EED0Ev@Base 0.1
 _ZNSt23_Sp_counted_ptr_inplaceIN8osmscout8DataFileINS0_3WayEEESaIS3_ELN9__gnu_cxx12_Lock_policyE2EED1Ev@Base 0.1
 _ZNSt23_Sp_counted_ptr_inplaceIN8osmscout8DataFileINS0_3WayEEESaIS3_ELN9__gnu_cxx12_Lock_policyE2EED2Ev@Base 0.1
 _ZNSt23_Sp_counted_ptr_inplaceIN8osmscout8DataFileINS0_4AreaEEESaIS3_ELN9__gnu_cxx12_Lock_policyE2EE10_M_destroyEv@Base 0.1
 _ZNSt23_Sp_counted_ptr_inplaceIN8osmscout8DataFileINS0_4AreaEEESaIS3_ELN9__gnu_cxx12_Lock_policyE2EE10_M_disposeEv@Base 0.1
 _ZNSt23_Sp_counted_ptr_inplaceIN8osmscout8DataFileINS0_4AreaEEESaIS3_ELN9__gnu_cxx12_Lock_policyE2EE14_M_get_deleterERKSt9type_info@Base 0.1
 _ZNSt23_Sp_counted_ptr_inplaceIN8osmscout8DataFileINS0_4AreaEEESaIS3_ELN9__gnu_cxx12_Lock_policyE2EED0Ev@Base 0.1
 _ZNSt23_Sp_counted_ptr_inplaceIN8osmscout8DataFileINS0_4AreaEEESaIS3_ELN9__gnu_cxx12_Lock_policyE2EED1Ev@Base 0.1
 _ZNSt23_Sp_counted_ptr_inplaceIN8osmscout8DataFileINS0_4AreaEEESaIS3_ELN9__gnu_cxx12_Lock_policyE2EED2Ev@Base 0.1
 _ZNSt23_Sp_counted_ptr_inplaceIN8osmscout8LocationESaIS1_ELN9__gnu_cxx12_Lock_policyE2EE10_M_destroyEv@Base 0.1
 _ZNSt23_Sp_counted_ptr_inplaceIN8osmscout8LocationESaIS1_ELN9__gnu_cxx12_Lock_policyE2EE10_M_disposeEv@Base 0.1
 _ZNSt23_Sp_counted_ptr_inplaceIN8osmscout8LocationESaIS1_ELN9__gnu_cxx12_Lock_policyE2EE14_M_get_deleterERKSt9type_info@Base 0.1
 _ZNSt23_Sp_counted_ptr_inplaceIN8osmscout8LocationESaIS1_ELN9__gnu_cxx12_Lock_policyE2EED0Ev@Base 0.1
 _ZNSt23_Sp_counted_ptr_inplaceIN8osmscout8LocationESaIS1_ELN9__gnu_cxx12_Lock_policyE2EED1Ev@Base 0.1
 _ZNSt23_Sp_counted_ptr_inplaceIN8osmscout8LocationESaIS1_ELN9__gnu_cxx12_Lock_policyE2EED2Ev@Base 0.1
 _ZNSt23_Sp_counted_ptr_inplaceIN8osmscout8TypeInfoESaIS1_ELN9__gnu_cxx12_Lock_policyE2EE10_M_destroyEv@Base 0.1
 _ZNSt23_Sp_counted_ptr_inplaceIN8osmscout8TypeInfoESaIS1_ELN9__gnu_cxx12_Lock_policyE2EE10_M_disposeEv@Base 0.1
 _ZNSt23_Sp_counted_ptr_inplaceIN8osmscout8TypeInfoESaIS1_ELN9__gnu_cxx12_Lock_policyE2EE14_M_get_deleterERKSt9type_info@Base 0.1
 _ZNSt23_Sp_counted_ptr_inplaceIN8osmscout8TypeInfoESaIS1_ELN9__gnu_cxx12_Lock_policyE2EED0Ev@Base 0.1
 _ZNSt23_Sp_counted_ptr_inplaceIN8osmscout8TypeInfoESaIS1_ELN9__gnu_cxx12_Lock_policyE2EED1Ev@Base 0.1
 _ZNSt23_Sp_counted_ptr_inplaceIN8osmscout8TypeInfoESaIS1_ELN9__gnu_cxx12_Lock_policyE2EED2Ev@Base 0.1
 _ZNSt4listIN8osmscout20LocationSearchResult5EntryESaIS2_EE4sortEv@Base 0.1
 _ZNSt4listIN8osmscout20LocationSearchResult5EntryESaIS2_EE5mergeEOS4_@Base 0.1
 _ZNSt4pairIKSsN8osmscout3RefINS1_16RouteDescription11DescriptionEEEED1Ev@Base 0.1
 _ZNSt4pairIKSsN8osmscout3RefINS1_16RouteDescription11DescriptionEEEED2Ev@Base 0.1
 _ZNSt4pairIKSsN8osmscout3RefINS1_7FeatureEEEED1Ev@Base 0.1
 _ZNSt4pairIKSsN8osmscout3RefINS1_7FeatureEEEED2Ev@Base 0.1
 _ZNSt4pairIKSsSt10shared_ptrIN8osmscout8TypeInfoEEED1Ev@Base 0.1
 _ZNSt4pairIKSsSt10shared_ptrIN8osmscout8TypeInfoEEED2Ev@Base 0.1
 _ZNSt6vectorIN8osmscout10GroundTile5CoordESaIS2_EE17_M_default_appendEm@Base 0.1
 _ZNSt6vectorIN8osmscout10WaterIndex5LevelESaIS2_EE17_M_default_appendEm@Base 0.1
 _ZNSt6vectorIN8osmscout11AdminRegion11RegionAliasESaIS2_EE17_M_default_appendEm@Base 0.1
 _ZNSt6vectorIN8osmscout12AreaWayIndex8TypeDataESaIS2_EE17_M_default_appendEm@Base 0.1
 _ZNSt6vectorIN8osmscout12NumericIndexImE5EntryESaIS3_EE19_M_emplace_back_auxIIRKS3_EEEvDpOT_@Base 0.1
 _ZNSt6vectorIN8osmscout12NumericIndexImE5EntryESaIS3_EE19_M_emplace_back_auxIJRKS3_EEEvDpOT_@Base 0.1
 _ZNSt6vectorIN8osmscout12NumericIndexImE5EntryESaIS3_EE7reserveEm@Base 0.1
 _ZNSt6vectorIN8osmscout13AreaAreaIndex10IndexEntryESaIS2_EE17_M_default_appendEm@Base 0.1
 _ZNSt6vectorIN8osmscout13AreaAreaIndex10IndexEntryESaIS2_EEaSERKS4_@Base 0.1
 _ZNSt6vectorIN8osmscout13AreaAreaIndex7CellRefESaIS2_EE12emplace_backIIS2_EEEvDpOT_@Base 0.1
 _ZNSt6vectorIN8osmscout13AreaAreaIndex7CellRefESaIS2_EE12emplace_backIJS2_EEEvDpOT_@Base 0.1
 _ZNSt6vectorIN8osmscout13AreaAreaIndex7CellRefESaIS2_EE19_M_emplace_back_auxIIS2_EEEvDpOT_@Base 0.1
 _ZNSt6vectorIN8osmscout13AreaAreaIndex7CellRefESaIS2_EE19_M_emplace_back_auxIJS2_EEEvDpOT_@Base 0.1
 _ZNSt6vectorIN8osmscout13AreaAreaIndex7CellRefESaIS2_EE7reserveEm@Base 0.1
 _ZNSt6vectorIN8osmscout13AreaNodeIndex8TypeDataESaIS2_EE17_M_default_appendEm@Base 0.1
 _ZNSt6vectorIN8osmscout13ObjectFileRefESaIS1_EE17_M_default_appendEm@Base 0.1
 _ZNSt6vectorIN8osmscout13ObjectFileRefESaIS1_EE19_M_emplace_back_auxIIRKS1_EEEvDpOT_@Base 0.1
 _ZNSt6vectorIN8osmscout13ObjectFileRefESaIS1_EE19_M_emplace_back_auxIJRKS1_EEEvDpOT_@Base 0.1
 _ZNSt6vectorIN8osmscout13ObjectFileRefESaIS1_EE7reserveEm@Base 0.1
 _ZNSt6vectorIN8osmscout13ObjectFileRefESaIS1_EEaSERKS3_@Base 0.1
 _ZNSt6vectorIN8osmscout13PolygonMerger4NodeESaIS2_EE19_M_emplace_back_auxIIRKS2_EEEvDpOT_@Base 0.1
 _ZNSt6vectorIN8osmscout13PolygonMerger4NodeESaIS2_EE19_M_emplace_back_auxIJRKS2_EEEvDpOT_@Base 0.1
 _ZNSt6vectorIN8osmscout13PolygonMerger4NodeESaIS2_EE7reserveEm@Base 0.1
 _ZNSt6vectorIN8osmscout15FeatureInstanceESaIS1_EE19_M_emplace_back_auxIIS1_EEEvDpOT_@Base 0.1
 _ZNSt6vectorIN8osmscout15FeatureInstanceESaIS1_EE19_M_emplace_back_auxIJS1_EEEvDpOT_@Base 0.1
 _ZNSt6vectorIN8osmscout15FeatureInstanceESaIS1_EED1Ev@Base 0.1
 _ZNSt6vectorIN8osmscout15FeatureInstanceESaIS1_EED2Ev@Base 0.1
 _ZNSt6vectorIN8osmscout3RefINS0_12IntersectionEEESaIS3_EE19_M_emplace_back_auxIIRKS3_EEEvDpOT_@Base 0.1
 _ZNSt6vectorIN8osmscout3RefINS0_12IntersectionEEESaIS3_EE19_M_emplace_back_auxIIS3_EEEvDpOT_@Base 0.1
 _ZNSt6vectorIN8osmscout3RefINS0_12IntersectionEEESaIS3_EE19_M_emplace_back_auxIJRKS3_EEEvDpOT_@Base 0.1
 _ZNSt6vectorIN8osmscout3RefINS0_12IntersectionEEESaIS3_EE19_M_emplace_back_auxIJS3_EEEvDpOT_@Base 0.1
 _ZNSt6vectorIN8osmscout3RefINS0_12IntersectionEEESaIS3_EE7reserveEm@Base 0.1
 _ZNSt6vectorIN8osmscout3RefINS0_12IntersectionEEESaIS3_EED1Ev@Base 0.1
 _ZNSt6vectorIN8osmscout3RefINS0_12IntersectionEEESaIS3_EED2Ev@Base 0.1
 _ZNSt6vectorIN8osmscout3RefINS0_3WayEEESaIS3_EE12emplace_backIIS3_EEEvDpOT_@Base 0.1
 _ZNSt6vectorIN8osmscout3RefINS0_3WayEEESaIS3_EE12emplace_backIJS3_EEEvDpOT_@Base 0.1
 _ZNSt6vectorIN8osmscout3RefINS0_3WayEEESaIS3_EE19_M_emplace_back_auxIIRKS3_EEEvDpOT_@Base 0.1
 _ZNSt6vectorIN8osmscout3RefINS0_3WayEEESaIS3_EE19_M_emplace_back_auxIIS3_EEEvDpOT_@Base 0.1
 _ZNSt6vectorIN8osmscout3RefINS0_3WayEEESaIS3_EE19_M_emplace_back_auxIJRKS3_EEEvDpOT_@Base 0.1
 _ZNSt6vectorIN8osmscout3RefINS0_3WayEEESaIS3_EE19_M_emplace_back_auxIJS3_EEEvDpOT_@Base 0.1
 _ZNSt6vectorIN8osmscout3RefINS0_3WayEEESaIS3_EE7reserveEm@Base 0.1
 _ZNSt6vectorIN8osmscout3RefINS0_3WayEEESaIS3_EED1Ev@Base 0.1
 _ZNSt6vectorIN8osmscout3RefINS0_3WayEEESaIS3_EED2Ev@Base 0.1
 _ZNSt6vectorIN8osmscout3RefINS0_4AreaEEESaIS3_EE12emplace_backIIS3_EEEvDpOT_@Base 0.1
 _ZNSt6vectorIN8osmscout3RefINS0_4AreaEEESaIS3_EE12emplace_backIJS3_EEEvDpOT_@Base 0.1
 _ZNSt6vectorIN8osmscout3RefINS0_4AreaEEESaIS3_EE19_M_emplace_back_auxIIRKS3_EEEvDpOT_@Base 0.1
 _ZNSt6vectorIN8osmscout3RefINS0_4AreaEEESaIS3_EE19_M_emplace_back_auxIIS3_EEEvDpOT_@Base 0.1
 _ZNSt6vectorIN8osmscout3RefINS0_4AreaEEESaIS3_EE19_M_emplace_back_auxIJRKS3_EEEvDpOT_@Base 0.1
 _ZNSt6vectorIN8osmscout3RefINS0_4AreaEEESaIS3_EE19_M_emplace_back_auxIJS3_EEEvDpOT_@Base 0.1
 _ZNSt6vectorIN8osmscout3RefINS0_4AreaEEESaIS3_EE7reserveEm@Base 0.1
 _ZNSt6vectorIN8osmscout3RefINS0_4AreaEEESaIS3_EED1Ev@Base 0.1
 _ZNSt6vectorIN8osmscout3RefINS0_4AreaEEESaIS3_EED2Ev@Base 0.1
 _ZNSt6vectorIN8osmscout3RefINS0_4NodeEEESaIS3_EE12emplace_backIIS3_EEEvDpOT_@Base 0.1
 _ZNSt6vectorIN8osmscout3RefINS0_4NodeEEESaIS3_EE12emplace_backIJS3_EEEvDpOT_@Base 0.1
 _ZNSt6vectorIN8osmscout3RefINS0_4NodeEEESaIS3_EE19_M_emplace_back_auxIIRKS3_EEEvDpOT_@Base 0.1
 _ZNSt6vectorIN8osmscout3RefINS0_4NodeEEESaIS3_EE19_M_emplace_back_auxIIS3_EEEvDpOT_@Base 0.1
 _ZNSt6vectorIN8osmscout3RefINS0_4NodeEEESaIS3_EE19_M_emplace_back_auxIJRKS3_EEEvDpOT_@Base 0.1
 _ZNSt6vectorIN8osmscout3RefINS0_4NodeEEESaIS3_EE19_M_emplace_back_auxIJS3_EEEvDpOT_@Base 0.1
 _ZNSt6vectorIN8osmscout3RefINS0_4NodeEEESaIS3_EE7reserveEm@Base 0.1
 _ZNSt6vectorIN8osmscout3RefINS0_4NodeEEESaIS3_EED1Ev@Base 0.1
 _ZNSt6vectorIN8osmscout3RefINS0_4NodeEEESaIS3_EED2Ev@Base 0.1
 _ZNSt6vectorIN8osmscout3RefINS0_7FeatureEEESaIS3_EE19_M_emplace_back_auxIIRKS3_EEEvDpOT_@Base 0.1
 _ZNSt6vectorIN8osmscout3RefINS0_7FeatureEEESaIS3_EE19_M_emplace_back_auxIJRKS3_EEEvDpOT_@Base 0.1
 _ZNSt6vectorIN8osmscout3RefINS0_7FeatureEEESaIS3_EED1Ev@Base 0.1
 _ZNSt6vectorIN8osmscout3RefINS0_7FeatureEEESaIS3_EED2Ev@Base 0.1
 _ZNSt6vectorIN8osmscout3RefINS0_9RouteNodeEEESaIS3_EE19_M_emplace_back_auxIIRKS3_EEEvDpOT_@Base 0.1
 _ZNSt6vectorIN8osmscout3RefINS0_9RouteNodeEEESaIS3_EE19_M_emplace_back_auxIIS3_EEEvDpOT_@Base 0.1
 _ZNSt6vectorIN8osmscout3RefINS0_9RouteNodeEEESaIS3_EE19_M_emplace_back_auxIJRKS3_EEEvDpOT_@Base 0.1
 _ZNSt6vectorIN8osmscout3RefINS0_9RouteNodeEEESaIS3_EE19_M_emplace_back_auxIJS3_EEEvDpOT_@Base 0.1
 _ZNSt6vectorIN8osmscout3RefINS0_9RouteNodeEEESaIS3_EE7reserveEm@Base 0.1
 _ZNSt6vectorIN8osmscout3RefINS0_9RouteNodeEEESaIS3_EED1Ev@Base 0.1
 _ZNSt6vectorIN8osmscout3RefINS0_9RouteNodeEEESaIS3_EED2Ev@Base 0.1
 _ZNSt6vectorIN8osmscout4Area4RingESaIS2_EE17_M_default_appendEm@Base 0.1
 _ZNSt6vectorIN8osmscout5CacheImNS0_3RefINS0_12NumericIndexImE4PageEEEmEESaIS7_EE19_M_emplace_back_auxIIS7_EEEvDpOT_@Base 0.1
 _ZNSt6vectorIN8osmscout5CacheImNS0_3RefINS0_12NumericIndexImE4PageEEEmEESaIS7_EE19_M_emplace_back_auxIJS7_EEEvDpOT_@Base 0.1
 _ZNSt6vectorIN8osmscout7TagInfoESaIS1_EE19_M_emplace_back_auxIIRKS1_EEEvDpOT_@Base 0.1
 _ZNSt6vectorIN8osmscout7TagInfoESaIS1_EE19_M_emplace_back_auxIJRKS1_EEEvDpOT_@Base 0.1
 _ZNSt6vectorIN8osmscout7TagInfoESaIS1_EED1Ev@Base 0.1
 _ZNSt6vectorIN8osmscout7TagInfoESaIS1_EED2Ev@Base 0.1
 _ZNSt6vectorIN8osmscout7TypeSetESaIS1_EE19_M_emplace_back_auxIIRKS1_EEEvDpOT_@Base 0.1
 _ZNSt6vectorIN8osmscout7TypeSetESaIS1_EE19_M_emplace_back_auxIJRKS1_EEEvDpOT_@Base 0.1
 _ZNSt6vectorIN8osmscout7TypeSetESaIS1_EED1Ev@Base 0.1
 _ZNSt6vectorIN8osmscout7TypeSetESaIS1_EED2Ev@Base 0.1
 _ZNSt6vectorIN8osmscout8GeoCoordESaIS1_EE17_M_default_appendEm@Base 0.1
 _ZNSt6vectorIN8osmscout8GeoCoordESaIS1_EE19_M_emplace_back_auxIIRKS1_EEEvDpOT_@Base 0.1
 _ZNSt6vectorIN8osmscout8GeoCoordESaIS1_EE19_M_emplace_back_auxIJRKS1_EEEvDpOT_@Base 0.1
 _ZNSt6vectorIN8osmscout8GeoCoordESaIS1_EE7reserveEm@Base 0.1
 _ZNSt6vectorIN8osmscout8GeoCoordESaIS1_EEaSERKS3_@Base 0.1
 _ZNSt6vectorIN8osmscout8ScanCellESaIS1_EE12emplace_backIIS1_EEEvDpOT_@Base 0.1
 _ZNSt6vectorIN8osmscout8ScanCellESaIS1_EE12emplace_backIJS1_EEEvDpOT_@Base 0.1
 _ZNSt6vectorIN8osmscout8ScanCellESaIS1_EE19_M_emplace_back_auxIIS1_EEEvDpOT_@Base 0.1
 _ZNSt6vectorIN8osmscout8ScanCellESaIS1_EE19_M_emplace_back_auxIJS1_EEEvDpOT_@Base 0.1
 _ZNSt6vectorIN8osmscout9RouteNode10ObjectDataESaIS2_EE17_M_default_appendEm@Base 0.1
 _ZNSt6vectorIN8osmscout9RouteNode10ObjectDataESaIS2_EE19_M_emplace_back_auxIIRKS2_EEEvDpOT_@Base 0.1
 _ZNSt6vectorIN8osmscout9RouteNode10ObjectDataESaIS2_EE19_M_emplace_back_auxIJRKS2_EEEvDpOT_@Base 0.1
 _ZNSt6vectorIN8osmscout9RouteNode4PathESaIS2_EE17_M_default_appendEm@Base 0.1
 _ZNSt6vectorIN8osmscout9RouteNode7ExcludeESaIS2_EE17_M_default_appendEm@Base 0.1
 _ZNSt6vectorISt10shared_ptrIN8osmscout8TypeInfoEESaIS3_EE17_M_default_appendEm@Base 0.1
 _ZNSt6vectorISt10shared_ptrIN8osmscout8TypeInfoEESaIS3_EE19_M_emplace_back_auxIIRKS3_EEEvDpOT_@Base 0.1
 _ZNSt6vectorISt10shared_ptrIN8osmscout8TypeInfoEESaIS3_EE19_M_emplace_back_auxIJRKS3_EEEvDpOT_@Base 0.1
 _ZNSt6vectorISt10shared_ptrIN8osmscout8TypeInfoEESaIS3_EED1Ev@Base 0.1
 _ZNSt6vectorISt10shared_ptrIN8osmscout8TypeInfoEESaIS3_EED2Ev@Base 0.1
 _ZNSt6vectorIbSaIbEE14_M_fill_insertESt13_Bit_iteratormb@Base 0.1
 _ZNSt6vectorIdSaIdEE14_M_fill_insertEN9__gnu_cxx17__normal_iteratorIPdS1_EEmRKd@Base 0.1
 _ZNSt6vectorIdSaIdEE17_M_default_appendEm@Base 0.1
 _ZNSt6vectorIjSaIjEE17_M_default_appendEm@Base 0.1
 _ZNSt6vectorImSaImEE14_M_fill_insertEN9__gnu_cxx17__normal_iteratorIPmS1_EEmRKm@Base 0.1
 _ZNSt6vectorImSaImEE15_M_range_insertIN9__gnu_cxx17__normal_iteratorIPmS1_EEEEvS6_T_S7_St20forward_iterator_tag@Base 0.1
 _ZNSt6vectorImSaImEE15_M_range_insertINSt8__detail14_Node_iteratorImLb1ELb0EEEEEvN9__gnu_cxx17__normal_iteratorIPmS1_EET_SA_St20forward_iterator_tag@Base 0.1
 _ZNSt6vectorImSaImEE17_M_default_appendEm@Base 0.1
 _ZNSt6vectorImSaImEE19_M_emplace_back_auxIIRKmEEEvDpOT_@Base 0.1
 _ZNSt6vectorImSaImEE19_M_emplace_back_auxIJRKmEEEvDpOT_@Base 0.1
 _ZNSt6vectorImSaImEE7reserveEm@Base 0.1
 _ZNSt6vectorImSaImEEaSERKS1_@Base 0.1
 _ZNSt8_Rb_treeIN8osmscout12ObjectOSMRefESt4pairIKS1_NS0_13ObjectFileRefEESt10_Select1stIS5_ESt4lessIS1_ESaIS5_EE16_M_insert_uniqueIS2_IS1_S4_EEES2_ISt17_Rb_tree_iteratorIS5_EbEOT_@Base 0.1
 _ZNSt8_Rb_treeIN8osmscout13ObjectFileRefES1_St9_IdentityIS1_ESt4lessIS1_ESaIS1_EE16_M_insert_uniqueIRKS1_EESt4pairISt17_Rb_tree_iteratorIS1_EbEOT_@Base 0.1
 _ZNSt8_Rb_treeIN8osmscout13ObjectFileRefES1_St9_IdentityIS1_ESt4lessIS1_ESaIS1_EE4findERKS1_@Base 0.1
 _ZNSt8_Rb_treeIN8osmscout13ObjectFileRefES1_St9_IdentityIS1_ESt4lessIS1_ESaIS1_EE8_M_eraseEPSt13_Rb_tree_nodeIS1_E@Base 0.1
 _ZNSt8_Rb_treeIN8osmscout13ObjectFileRefESt4pairIKS1_NS0_12ObjectOSMRefEESt10_Select1stIS5_ESt4lessIS1_ESaIS5_EE16_M_insert_uniqueIS2_IS1_S4_EEES2_ISt17_Rb_tree_iteratorIS5_EbEOT_@Base 0.1
 _ZNSt8_Rb_treeISsSsSt9_IdentityISsESt4lessISsESaISsEE8_M_eraseEPSt13_Rb_tree_nodeISsE@Base 0.1
 _ZNSt8_Rb_treeISsSt4pairIKSsiESt10_Select1stIS2_ESt4lessISsESaIS2_EE24_M_get_insert_unique_posERS1_@Base 0.1
 _ZNSt8_Rb_treeISsSt4pairIKSsiESt10_Select1stIS2_ESt4lessISsESaIS2_EE29_M_get_insert_hint_unique_posESt23_Rb_tree_const_iteratorIS2_ERS1_@Base 0.1
 _ZNSt8_Rb_treeISsSt4pairIKSsiESt10_Select1stIS2_ESt4lessISsESaIS2_EE8_M_eraseEPSt13_Rb_tree_nodeIS2_E@Base 0.1
 _ZNSt8_Rb_treeISt10shared_ptrIN8osmscout14RoutingService5RNodeEES4_St9_IdentityIS4_ENS2_16RNodeCostCompareESaIS4_EE12_M_erase_auxESt23_Rb_tree_const_iteratorIS4_E@Base 0.1
 _ZNSt8_Rb_treeISt10shared_ptrIN8osmscout14RoutingService5RNodeEES4_St9_IdentityIS4_ENS2_16RNodeCostCompareESaIS4_EE16_M_insert_uniqueIRKS4_EESt4pairISt17_Rb_tree_iteratorIS4_EbEOT_@Base 0.1
 _ZNSt8_Rb_treeISt10shared_ptrIN8osmscout14RoutingService5RNodeEES4_St9_IdentityIS4_ENS2_16RNodeCostCompareESaIS4_EE8_M_eraseEPSt13_Rb_tree_nodeIS4_E@Base 0.1
 _ZNSt8_Rb_treeIiSt4pairIKiiESt10_Select1stIS2_ESt4lessIiESaIS2_EE24_M_get_insert_unique_posERS1_@Base 0.1
 _ZNSt8_Rb_treeIiSt4pairIKiiESt10_Select1stIS2_ESt4lessIiESaIS2_EE29_M_get_insert_hint_unique_posESt23_Rb_tree_const_iteratorIS2_ERS1_@Base 0.1
 _ZNSt8_Rb_treeIiSt4pairIKiiESt10_Select1stIS2_ESt4lessIiESaIS2_EE8_M_eraseEPSt13_Rb_tree_nodeIS2_E@Base 0.1
 _ZNSt8_Rb_treeImSt4pairIKmSt10shared_ptrIN8osmscout11AdminRegionEEESt10_Select1stIS6_ESt4lessImESaIS6_EE16_M_insert_uniqueIS0_ImS5_EEES0_ISt17_Rb_tree_iteratorIS6_EbEOT_@Base 0.1
 _ZNSt8_Rb_treeImSt4pairIKmSt10shared_ptrIN8osmscout11AdminRegionEEESt10_Select1stIS6_ESt4lessImESaIS6_EE24_M_get_insert_unique_posERS1_@Base 0.1
 _ZNSt8_Rb_treeImSt4pairIKmSt10shared_ptrIN8osmscout11AdminRegionEEESt10_Select1stIS6_ESt4lessImESaIS6_EE29_M_get_insert_hint_unique_posESt23_Rb_tree_const_iteratorIS6_ERS1_@Base 0.1
 _ZNSt8_Rb_treeImSt4pairIKmSt10shared_ptrIN8osmscout11AdminRegionEEESt10_Select1stIS6_ESt4lessImESaIS6_EE8_M_eraseEPSt13_Rb_tree_nodeIS6_E@Base 0.1
 _ZNSt8_Rb_treeImmSt9_IdentityImESt4lessImESaImEE16_M_insert_uniqueIRKmEESt4pairISt17_Rb_tree_iteratorImEbEOT_@Base 0.1
 _ZNSt8_Rb_treeImmSt9_IdentityImESt4lessImESaImEE16_M_insert_uniqueImEESt4pairISt17_Rb_tree_iteratorImEbEOT_@Base 0.1
 _ZNSt8_Rb_treeImmSt9_IdentityImESt4lessImESaImEE24_M_get_insert_unique_posERKm@Base 0.1
 _ZNSt8_Rb_treeImmSt9_IdentityImESt4lessImESaImEE8_M_eraseEPSt13_Rb_tree_nodeImE@Base 0.1
 _ZNSt8_Rb_treeItSt4pairIKtSt4listIN8osmscout19OptimizeWaysLowZoom8TypeDataESaIS5_EEESt10_Select1stIS8_ESt4lessItESaIS8_EE24_M_get_insert_unique_posERS1_@Base 0.1
 _ZNSt8_Rb_treeItSt4pairIKtSt4listIN8osmscout19OptimizeWaysLowZoom8TypeDataESaIS5_EEESt10_Select1stIS8_ESt4lessItESaIS8_EE29_M_get_insert_hint_unique_posESt23_Rb_tree_const_iteratorIS8_ERS1_@Base 0.1
 _ZNSt8_Rb_treeItSt4pairIKtSt4listIN8osmscout19OptimizeWaysLowZoom8TypeDataESaIS5_EEESt10_Select1stIS8_ESt4lessItESaIS8_EE8_M_eraseEPSt13_Rb_tree_nodeIS8_E@Base 0.1
 _ZNSt8_Rb_treeItSt4pairIKtSt4listIN8osmscout20OptimizeAreasLowZoom8TypeDataESaIS5_EEESt10_Select1stIS8_ESt4lessItESaIS8_EE24_M_get_insert_unique_posERS1_@Base 0.1
 _ZNSt8_Rb_treeItSt4pairIKtSt4listIN8osmscout20OptimizeAreasLowZoom8TypeDataESaIS5_EEESt10_Select1stIS8_ESt4lessItESaIS8_EE29_M_get_insert_hint_unique_posESt23_Rb_tree_const_iteratorIS8_ERS1_@Base 0.1
 _ZNSt8_Rb_treeItSt4pairIKtSt4listIN8osmscout20OptimizeAreasLowZoom8TypeDataESaIS5_EEESt10_Select1stIS8_ESt4lessItESaIS8_EE8_M_eraseEPSt13_Rb_tree_nodeIS8_E@Base 0.1
 _ZNSt8__detail9_Map_baseISsSt4pairIKSsN8osmscout13Magnification3MagEESaIS6_ENS_10_Select1stESt8equal_toISsESt4hashISsENS_18_Mod_range_hashingENS_20_Default_ranged_hashENS_20_Prime_rehash_policyENS_17_Hashtable_traitsILb1ELb0ELb1EEELb1EEixEOSs@Base 0.1
 _ZNSt8__detail9_Map_baseISsSt4pairIKSsN8osmscout3RefINS3_7FeatureEEEESaIS7_ENS_10_Select1stESt8equal_toISsESt4hashISsENS_18_Mod_range_hashingENS_20_Default_ranged_hashENS_20_Prime_rehash_policyENS_17_Hashtable_traitsILb1ELb0ELb1EEELb1EEixEOSs@Base 0.1
 _ZNSt8__detail9_Map_baseISsSt4pairIKSsSt10shared_ptrIN8osmscout8TypeInfoEEESaIS7_ENS_10_Select1stESt8equal_toISsESt4hashISsENS_18_Mod_range_hashingENS_20_Default_ranged_hashENS_20_Prime_rehash_policyENS_17_Hashtable_traitsILb1ELb0ELb1EEELb1EEixEOSs@Base 0.1
 _ZNSt8__detail9_Map_baseISsSt4pairIKSstESaIS3_ENS_10_Select1stESt8equal_toISsESt4hashISsENS_18_Mod_range_hashingENS_20_Default_ranged_hashENS_20_Prime_rehash_policyENS_17_Hashtable_traitsILb1ELb0ELb1EEELb1EEixEOSs@Base 0.1
 _ZNSt8__detail9_Map_baseImSt4pairIKmSsESaIS3_ENS_10_Select1stESt8equal_toImESt4hashImENS_18_Mod_range_hashingENS_20_Default_ranged_hashENS_20_Prime_rehash_policyENS_17_Hashtable_traitsILb0ELb0ELb1EEELb1EEixEOm@Base 0.1
 _ZNSt8__detail9_Map_baseImSt4pairIKmSt23_Rb_tree_const_iteratorISt10shared_ptrIN8osmscout14RoutingService5RNodeEEEESaISA_ENS_10_Select1stESt8equal_toImESt4hashImENS_18_Mod_range_hashingENS_20_Default_ranged_hashENS_20_Prime_rehash_policyENS_17_Hashtable_traitsILb0ELb0ELb1EEELb1EEixERS2_@Base 0.1
 _ZSt13__adjust_heapIN9__gnu_cxx17__normal_iteratorIPmSt6vectorImSaImEEEElmEvT_T0_S8_T1_@Base 0.1
 _ZSt16__insertion_sortIN9__gnu_cxx17__normal_iteratorIPmSt6vectorImSaImEEEEEvT_S7_@Base 0.1
 _ZSt16__introsort_loopIN9__gnu_cxx17__normal_iteratorIPmSt6vectorImSaImEEEElEvT_S7_T0_@Base 0.1
 _ZSteqIcEN9__gnu_cxx11__enable_ifIXsrSt9__is_charIT_E7__valueEbE6__typeERKSbIS3_St11char_traitsIS3_ESaIS3_EESC_@Base 0.1
 _ZStplIcSt11char_traitsIcESaIcEESbIT_T0_T1_EPKS3_RKS6_@Base 0.1
 _ZTIN8osmscout10EleFeatureE@Base 0.1
 _ZTIN8osmscout10FileWriterE@Base 0.1
 _ZTIN8osmscout10NoOpLogger15NoOpDestinationE@Base 0.1
 _ZTIN8osmscout10NoOpLoggerE@Base 0.1
 _ZTIN8osmscout10NodeUseMapE@Base 0.1
 _ZTIN8osmscout10POIServiceE@Base 0.1
 _ZTIN8osmscout10ProjectionE@Base 0.1
 _ZTIN8osmscout10RefFeatureE@Base 0.1
 _ZTIN8osmscout10TypeConfigE@Base 0.1
 _ZTIN8osmscout11CoordBufferE@Base 0.1
 _ZTIN8osmscout11FileScannerE@Base 0.1
 _ZTIN8osmscout11NameFeatureE@Base 0.1
 _ZTIN8osmscout11TransBufferE@Base 0.1
 _ZTIN8osmscout12DummyBreakerE@Base 0.1
 _ZTIN8osmscout12FeatureValueE@Base 0.1
 _ZTIN8osmscout12GradeFeatureE@Base 0.1
 _ZTIN8osmscout12IntersectionE@Base 0.1
 _ZTIN8osmscout12LayerFeatureE@Base 0.1
 _ZTIN8osmscout12NodeDataFileE@Base 0.1
 _ZTIN8osmscout12NumericIndexImE27NumericIndexCacheValueSizerE@Base 0.1
 _ZTIN8osmscout12NumericIndexImEE@Base 0.1
 _ZTIN8osmscout12ReferencableE@Base 0.1
 _ZTIN8osmscout12StreamLogger17StreamDestinationE@Base 0.1
 _ZTIN8osmscout12StreamLoggerE@Base 0.1
 _ZTIN8osmscout12TagConditionE@Base 0.1
 _ZTIN8osmscout12TransPolygonE@Base 0.1
 _ZTIN8osmscout12WidthFeatureE@Base 0.1
 _ZTIN8osmscout13AccessFeatureE@Base 0.1
 _ZTIN8osmscout13AreaAreaIndex20IndexCacheValueSizerE@Base 0.1
 _ZTIN8osmscout13BridgeFeatureE@Base 0.1
 _ZTIN8osmscout13ConsoleLoggerE@Base 0.1
 _ZTIN8osmscout13CoordDataFileE@Base 0.1
 _ZTIN8osmscout13DebugDatabaseE@Base 0.1
 _ZTIN8osmscout13LocationIndexE@Base 0.1
 _ZTIN8osmscout13TunnelFeatureE@Base 0.1
 _ZTIN8osmscout14AddressFeatureE@Base 0.1
 _ZTIN8osmscout14AddressVisitorE@Base 0.1
 _ZTIN8osmscout14NameAltFeatureE@Base 0.1
 _ZTIN8osmscout14RoutingProfileE@Base 0.1
 _ZTIN8osmscout14RoutingServiceE@Base 0.1
 _ZTIN8osmscout14TileProjectionE@Base 0.1
 _ZTIN8osmscout15ConsoleProgressE@Base 0.1
 _ZTIN8osmscout15EleFeatureValueE@Base 0.1
 _ZTIN8osmscout15IndexedDataFileImNS_12IntersectionEEE@Base 0.1
 _ZTIN8osmscout15IndexedDataFileImNS_9RouteNodeEEE@Base 0.1
 _ZTIN8osmscout15LocationFeatureE@Base 0.1
 _ZTIN8osmscout15LocationService14VisitorMatcherE@Base 0.1
 _ZTIN8osmscout15LocationService19AddressMatchVisitorE@Base 0.1
 _ZTIN8osmscout15LocationService20LocationMatchVisitorE@Base 0.1
 _ZTIN8osmscout15LocationService23AdminRegionMatchVisitorE@Base 0.1
 _ZTIN8osmscout15LocationVisitorE@Base 0.1
 _ZTIN8osmscout15MaxSpeedFeatureE@Base 0.1
 _ZTIN8osmscout15RefFeatureValueE@Base 0.1
 _ZTIN8osmscout15TagNotConditionE@Base 0.1
 _ZTIN8osmscout15ThreadedBreakerE@Base 0.1
 _ZTIN8osmscout16NameFeatureValueE@Base 0.1
 _ZTIN8osmscout16RouteDescription11DescriptionE@Base 0.1
 _ZTIN8osmscout16RouteDescription15NameDescriptionE@Base 0.1
 _ZTIN8osmscout16RouteDescription15TurnDescriptionE@Base 0.1
 _ZTIN8osmscout16RouteDescription16StartDescriptionE@Base 0.1
 _ZTIN8osmscout16RouteDescription17TargetDescriptionE@Base 0.1
 _ZTIN8osmscout16RouteDescription20DirectionDescriptionE@Base 0.1
 _ZTIN8osmscout16RouteDescription22NameChangedDescriptionE@Base 0.1
 _ZTIN8osmscout16RouteDescription23CrossingWaysDescriptionE@Base 0.1
 _ZTIN8osmscout16RouteDescription24MotorwayEnterDescriptionE@Base 0.1
 _ZTIN8osmscout16RouteDescription24MotorwayLeaveDescriptionE@Base 0.1
 _ZTIN8osmscout16RouteDescription25MotorwayChangeDescriptionE@Base 0.1
 _ZTIN8osmscout16RouteDescription26RoundaboutEnterDescriptionE@Base 0.1
 _ZTIN8osmscout16RouteDescription26RoundaboutLeaveDescriptionE@Base 0.1
 _ZTIN8osmscout16RouteDescription27MotorwayJunctionDescriptionE@Base 0.1
 _ZTIN8osmscout16RouteDescriptionE@Base 0.1
 _ZTIN8osmscout16TagBoolConditionE@Base 0.1
 _ZTIN8osmscout16TagIsInConditionE@Base 0.1
 _ZTIN8osmscout17AdminLevelFeatureE@Base 0.1
 _ZTIN8osmscout17GradeFeatureValueE@Base 0.1
 _ZTIN8osmscout17LayerFeatureValueE@Base 0.1
 _ZTIN8osmscout17RoundaboutFeatureE@Base 0.1
 _ZTIN8osmscout17WidthFeatureValueE@Base 0.1
 _ZTIN8osmscout18AccessFeatureValueE@Base 0.1
 _ZTIN8osmscout18AddressListVisitorE@Base 0.1
 _ZTIN8osmscout18AdminRegionVisitorE@Base 0.1
 _ZTIN8osmscout18FeatureValueBufferE@Base 0.1
 _ZTIN8osmscout18MercatorProjectionE@Base 0.1
 _ZTIN8osmscout18RoutePostprocessor13PostprocessorE@Base 0.1
 _ZTIN8osmscout18RoutePostprocessor18StartPostprocessorE@Base 0.1
 _ZTIN8osmscout18RoutePostprocessor19TargetPostprocessorE@Base 0.1
 _ZTIN8osmscout18RoutePostprocessor20WayNamePostprocessorE@Base 0.1
 _ZTIN8osmscout18RoutePostprocessor22DirectionPostprocessorE@Base 0.1
 _ZTIN8osmscout18RoutePostprocessor24InstructionPostprocessorE@Base 0.1
 _ZTIN8osmscout18RoutePostprocessor25CrossingWaysPostprocessorE@Base 0.1
 _ZTIN8osmscout18RoutePostprocessor28DistanceAndTimePostprocessorE@Base 0.1
 _ZTIN8osmscout18RoutePostprocessor29MotorwayJunctionPostprocessorE@Base 0.1
 _ZTIN8osmscout18TagBinaryConditionE@Base 0.1
 _ZTIN8osmscout18TagExistsConditionE@Base 0.1
 _ZTIN8osmscout19AddressFeatureValueE@Base 0.1
 _ZTIN8osmscout19NameAltFeatureValueE@Base 0.1
 _ZTIN8osmscout19OptimizeWaysLowZoomE@Base 0.1
 _ZTIN8osmscout20LocationFeatureValueE@Base 0.1
 _ZTIN8osmscout20MaxSpeedFeatureValueE@Base 0.1
 _ZTIN8osmscout20OptimizeAreasLowZoomE@Base 0.1
 _ZTIN8osmscout22AbstractRoutingProfileE@Base 0.1
 _ZTIN8osmscout22AdminLevelFeatureValueE@Base 0.1
 _ZTIN8osmscout23AccessRestrictedFeatureE@Base 0.1
 _ZTIN8osmscout25FastestPathRoutingProfileE@Base 0.1
 _ZTIN8osmscout26ShortestPathRoutingProfileE@Base 0.1
 _ZTIN8osmscout27AddressReverseLookupVisitorE@Base 0.1
 _ZTIN8osmscout28LocationReverseLookupVisitorE@Base 0.1
 _ZTIN8osmscout31AdminRegionReverseLookupVisitorE@Base 0.1
 _ZTIN8osmscout3ost10KeywordMapE@Base 0.1
 _ZTIN8osmscout3ost11StartStatesE@Base 0.1
 _ZTIN8osmscout3ost6BufferE@Base 0.1
 _ZTIN8osmscout4PathE@Base 0.1
 _ZTIN8osmscout4SRTME@Base 0.1
 _ZTIN8osmscout5CacheImNS_13AreaAreaIndex9IndexCellEmE10ValueSizerE@Base 0.1
 _ZTIN8osmscout5CacheImNS_3RefINS_12NumericIndexImE4PageEEEmE10ValueSizerE@Base 0.1
 _ZTIN8osmscout5CacheImNS_3RefINS_3WayEEEmE10ValueSizerE@Base 0.1
 _ZTIN8osmscout5CacheImNS_3RefINS_4AreaEEEmE10ValueSizerE@Base 0.1
 _ZTIN8osmscout5CacheImNS_3RefINS_4NodeEEEmE10ValueSizerE@Base 0.1
 _ZTIN8osmscout5CacheImNS_3RefINS_9RouteNodeEEEmE10ValueSizerE@Base 0.1
 _ZTIN8osmscout6Logger11DestinationE@Base 0.1
 _ZTIN8osmscout6Logger4LineE@Base 0.1
 _ZTIN8osmscout6LoggerE@Base 0.1
 _ZTIN8osmscout7BreakerE@Base 0.1
 _ZTIN8osmscout7FeatureE@Base 0.1
 _ZTIN8osmscout8DataFileINS_12IntersectionEEE@Base 0.1
 _ZTIN8osmscout8DataFileINS_3WayEE19DataCacheValueSizerE@Base 0.1
 _ZTIN8osmscout8DataFileINS_3WayEEE@Base 0.1
 _ZTIN8osmscout8DataFileINS_4AreaEE19DataCacheValueSizerE@Base 0.1
 _ZTIN8osmscout8DataFileINS_4AreaEEE@Base 0.1
 _ZTIN8osmscout8DataFileINS_4NodeEE19DataCacheValueSizerE@Base 0.1
 _ZTIN8osmscout8DataFileINS_4NodeEEE@Base 0.1
 _ZTIN8osmscout8DataFileINS_9RouteNodeEE19DataCacheValueSizerE@Base 0.1
 _ZTIN8osmscout8DataFileINS_9RouteNodeEEE@Base 0.1
 _ZTIN8osmscout8DatabaseE@Base 0.1
 _ZTIN8osmscout8ProgressE@Base 0.1
 _ZTIN8osmscout8TypeInfoE@Base 0.1
 _ZTIN8osmscout9NumberSet4DataE@Base 0.1
 _ZTIN8osmscout9NumberSet4LeafE@Base 0.1
 _ZTIN8osmscout9NumberSet4RefsE@Base 0.1
 _ZTIN8osmscout9StopClockE@Base 0.1
 _ZTISt11_Mutex_baseILN9__gnu_cxx12_Lock_policyE2EE@Base 0.1
 _ZTISt15_Sp_counted_ptrIPN8osmscout8TypeInfoELN9__gnu_cxx12_Lock_policyE2EE@Base 0.1
 _ZTISt16_Sp_counted_baseILN9__gnu_cxx12_Lock_policyE2EE@Base 0.1
 _ZTISt19_Sp_make_shared_tag@Base 0.1
 _ZTISt23_Sp_counted_ptr_inplaceIN8osmscout10TypeConfigESaIS1_ELN9__gnu_cxx12_Lock_policyE2EE@Base 0.1
 _ZTISt23_Sp_counted_ptr_inplaceIN8osmscout10WaterIndexESaIS1_ELN9__gnu_cxx12_Lock_policyE2EE@Base 0.1
 _ZTISt23_Sp_counted_ptr_inplaceIN8osmscout11AdminRegionESaIS1_ELN9__gnu_cxx12_Lock_policyE2EE@Base 0.1
 _ZTISt23_Sp_counted_ptr_inplaceIN8osmscout12AreaWayIndexESaIS1_ELN9__gnu_cxx12_Lock_policyE2EE@Base 0.1
 _ZTISt23_Sp_counted_ptr_inplaceIN8osmscout12NodeDataFileESaIS1_ELN9__gnu_cxx12_Lock_policyE2EE@Base 0.1
 _ZTISt23_Sp_counted_ptr_inplaceIN8osmscout13AreaAreaIndexESaIS1_ELN9__gnu_cxx12_Lock_policyE2EE@Base 0.1
 _ZTISt23_Sp_counted_ptr_inplaceIN8osmscout13AreaNodeIndexESaIS1_ELN9__gnu_cxx12_Lock_policyE2EE@Base 0.1
 _ZTISt23_Sp_counted_ptr_inplaceIN8osmscout13LocationIndexESaIS1_ELN9__gnu_cxx12_Lock_policyE2EE@Base 0.1
 _ZTISt23_Sp_counted_ptr_inplaceIN8osmscout14RoutingService5RNodeESaIS2_ELN9__gnu_cxx12_Lock_policyE2EE@Base 0.1
 _ZTISt23_Sp_counted_ptr_inplaceIN8osmscout19OptimizeWaysLowZoomESaIS1_ELN9__gnu_cxx12_Lock_policyE2EE@Base 0.1
 _ZTISt23_Sp_counted_ptr_inplaceIN8osmscout20OptimizeAreasLowZoomESaIS1_ELN9__gnu_cxx12_Lock_policyE2EE@Base 0.1
 _ZTISt23_Sp_counted_ptr_inplaceIN8osmscout3POIESaIS1_ELN9__gnu_cxx12_Lock_policyE2EE@Base 0.1
 _ZTISt23_Sp_counted_ptr_inplaceIN8osmscout7AddressESaIS1_ELN9__gnu_cxx12_Lock_policyE2EE@Base 0.1
 _ZTISt23_Sp_counted_ptr_inplaceIN8osmscout8DataFileINS0_3WayEEESaIS3_ELN9__gnu_cxx12_Lock_policyE2EE@Base 0.1
 _ZTISt23_Sp_counted_ptr_inplaceIN8osmscout8DataFileINS0_4AreaEEESaIS3_ELN9__gnu_cxx12_Lock_policyE2EE@Base 0.1
 _ZTISt23_Sp_counted_ptr_inplaceIN8osmscout8LocationESaIS1_ELN9__gnu_cxx12_Lock_policyE2EE@Base 0.1
 _ZTISt23_Sp_counted_ptr_inplaceIN8osmscout8TypeInfoESaIS1_ELN9__gnu_cxx12_Lock_policyE2EE@Base 0.1
 _ZTSN8osmscout10EleFeatureE@Base 0.1
 _ZTSN8osmscout10FileWriterE@Base 0.1
 _ZTSN8osmscout10NoOpLogger15NoOpDestinationE@Base 0.1
 _ZTSN8osmscout10NoOpLoggerE@Base 0.1
 _ZTSN8osmscout10NodeUseMapE@Base 0.1
 _ZTSN8osmscout10POIServiceE@Base 0.1
 _ZTSN8osmscout10ProjectionE@Base 0.1
 _ZTSN8osmscout10RefFeatureE@Base 0.1
 _ZTSN8osmscout10TypeConfigE@Base 0.1
 _ZTSN8osmscout11CoordBufferE@Base 0.1
 _ZTSN8osmscout11FileScannerE@Base 0.1
 _ZTSN8osmscout11NameFeatureE@Base 0.1
 _ZTSN8osmscout11TransBufferE@Base 0.1
 _ZTSN8osmscout12DummyBreakerE@Base 0.1
 _ZTSN8osmscout12FeatureValueE@Base 0.1
 _ZTSN8osmscout12GradeFeatureE@Base 0.1
 _ZTSN8osmscout12IntersectionE@Base 0.1
 _ZTSN8osmscout12LayerFeatureE@Base 0.1
 _ZTSN8osmscout12NodeDataFileE@Base 0.1
 _ZTSN8osmscout12NumericIndexImE27NumericIndexCacheValueSizerE@Base 0.1
 _ZTSN8osmscout12NumericIndexImEE@Base 0.1
 _ZTSN8osmscout12ReferencableE@Base 0.1
 _ZTSN8osmscout12StreamLogger17StreamDestinationE@Base 0.1
 _ZTSN8osmscout12StreamLoggerE@Base 0.1
 _ZTSN8osmscout12TagConditionE@Base 0.1
 _ZTSN8osmscout12TransPolygonE@Base 0.1
 _ZTSN8osmscout12WidthFeatureE@Base 0.1
 _ZTSN8osmscout13AccessFeatureE@Base 0.1
 _ZTSN8osmscout13AreaAreaIndex20IndexCacheValueSizerE@Base 0.1
 _ZTSN8osmscout13BridgeFeatureE@Base 0.1
 _ZTSN8osmscout13ConsoleLoggerE@Base 0.1
 _ZTSN8osmscout13CoordDataFileE@Base 0.1
 _ZTSN8osmscout13DebugDatabaseE@Base 0.1
 _ZTSN8osmscout13LocationIndexE@Base 0.1
 _ZTSN8osmscout13TunnelFeatureE@Base 0.1
 _ZTSN8osmscout14AddressFeatureE@Base 0.1
 _ZTSN8osmscout14AddressVisitorE@Base 0.1
 _ZTSN8osmscout14NameAltFeatureE@Base 0.1
 _ZTSN8osmscout14RoutingProfileE@Base 0.1
 _ZTSN8osmscout14RoutingServiceE@Base 0.1
 _ZTSN8osmscout14TileProjectionE@Base 0.1
 _ZTSN8osmscout15ConsoleProgressE@Base 0.1
 _ZTSN8osmscout15EleFeatureValueE@Base 0.1
 _ZTSN8osmscout15IndexedDataFileImNS_12IntersectionEEE@Base 0.1
 _ZTSN8osmscout15IndexedDataFileImNS_9RouteNodeEEE@Base 0.1
 _ZTSN8osmscout15LocationFeatureE@Base 0.1
 _ZTSN8osmscout15LocationService14VisitorMatcherE@Base 0.1
 _ZTSN8osmscout15LocationService19AddressMatchVisitorE@Base 0.1
 _ZTSN8osmscout15LocationService20LocationMatchVisitorE@Base 0.1
 _ZTSN8osmscout15LocationService23AdminRegionMatchVisitorE@Base 0.1
 _ZTSN8osmscout15LocationVisitorE@Base 0.1
 _ZTSN8osmscout15MaxSpeedFeatureE@Base 0.1
 _ZTSN8osmscout15RefFeatureValueE@Base 0.1
 _ZTSN8osmscout15TagNotConditionE@Base 0.1
 _ZTSN8osmscout15ThreadedBreakerE@Base 0.1
 _ZTSN8osmscout16NameFeatureValueE@Base 0.1
 _ZTSN8osmscout16RouteDescription11DescriptionE@Base 0.1
 _ZTSN8osmscout16RouteDescription15NameDescriptionE@Base 0.1
 _ZTSN8osmscout16RouteDescription15TurnDescriptionE@Base 0.1
 _ZTSN8osmscout16RouteDescription16StartDescriptionE@Base 0.1
 _ZTSN8osmscout16RouteDescription17TargetDescriptionE@Base 0.1
 _ZTSN8osmscout16RouteDescription20DirectionDescriptionE@Base 0.1
 _ZTSN8osmscout16RouteDescription22NameChangedDescriptionE@Base 0.1
 _ZTSN8osmscout16RouteDescription23CrossingWaysDescriptionE@Base 0.1
 _ZTSN8osmscout16RouteDescription24MotorwayEnterDescriptionE@Base 0.1
 _ZTSN8osmscout16RouteDescription24MotorwayLeaveDescriptionE@Base 0.1
 _ZTSN8osmscout16RouteDescription25MotorwayChangeDescriptionE@Base 0.1
 _ZTSN8osmscout16RouteDescription26RoundaboutEnterDescriptionE@Base 0.1
 _ZTSN8osmscout16RouteDescription26RoundaboutLeaveDescriptionE@Base 0.1
 _ZTSN8osmscout16RouteDescription27MotorwayJunctionDescriptionE@Base 0.1
 _ZTSN8osmscout16RouteDescriptionE@Base 0.1
 _ZTSN8osmscout16TagBoolConditionE@Base 0.1
 _ZTSN8osmscout16TagIsInConditionE@Base 0.1
 _ZTSN8osmscout17AdminLevelFeatureE@Base 0.1
 _ZTSN8osmscout17GradeFeatureValueE@Base 0.1
 _ZTSN8osmscout17LayerFeatureValueE@Base 0.1
 _ZTSN8osmscout17RoundaboutFeatureE@Base 0.1
 _ZTSN8osmscout17WidthFeatureValueE@Base 0.1
 _ZTSN8osmscout18AccessFeatureValueE@Base 0.1
 _ZTSN8osmscout18AddressListVisitorE@Base 0.1
 _ZTSN8osmscout18AdminRegionVisitorE@Base 0.1
 _ZTSN8osmscout18FeatureValueBufferE@Base 0.1
 _ZTSN8osmscout18MercatorProjectionE@Base 0.1
 _ZTSN8osmscout18RoutePostprocessor13PostprocessorE@Base 0.1
 _ZTSN8osmscout18RoutePostprocessor18StartPostprocessorE@Base 0.1
 _ZTSN8osmscout18RoutePostprocessor19TargetPostprocessorE@Base 0.1
 _ZTSN8osmscout18RoutePostprocessor20WayNamePostprocessorE@Base 0.1
 _ZTSN8osmscout18RoutePostprocessor22DirectionPostprocessorE@Base 0.1
 _ZTSN8osmscout18RoutePostprocessor24InstructionPostprocessorE@Base 0.1
 _ZTSN8osmscout18RoutePostprocessor25CrossingWaysPostprocessorE@Base 0.1
 _ZTSN8osmscout18RoutePostprocessor28DistanceAndTimePostprocessorE@Base 0.1
 _ZTSN8osmscout18RoutePostprocessor29MotorwayJunctionPostprocessorE@Base 0.1
 _ZTSN8osmscout18TagBinaryConditionE@Base 0.1
 _ZTSN8osmscout18TagExistsConditionE@Base 0.1
 _ZTSN8osmscout19AddressFeatureValueE@Base 0.1
 _ZTSN8osmscout19NameAltFeatureValueE@Base 0.1
 _ZTSN8osmscout19OptimizeWaysLowZoomE@Base 0.1
 _ZTSN8osmscout20LocationFeatureValueE@Base 0.1
 _ZTSN8osmscout20MaxSpeedFeatureValueE@Base 0.1
 _ZTSN8osmscout20OptimizeAreasLowZoomE@Base 0.1
 _ZTSN8osmscout22AbstractRoutingProfileE@Base 0.1
 _ZTSN8osmscout22AdminLevelFeatureValueE@Base 0.1
 _ZTSN8osmscout23AccessRestrictedFeatureE@Base 0.1
 _ZTSN8osmscout25FastestPathRoutingProfileE@Base 0.1
 _ZTSN8osmscout26ShortestPathRoutingProfileE@Base 0.1
 _ZTSN8osmscout27AddressReverseLookupVisitorE@Base 0.1
 _ZTSN8osmscout28LocationReverseLookupVisitorE@Base 0.1
 _ZTSN8osmscout31AdminRegionReverseLookupVisitorE@Base 0.1
 _ZTSN8osmscout3ost10KeywordMapE@Base 0.1
 _ZTSN8osmscout3ost11StartStatesE@Base 0.1
 _ZTSN8osmscout3ost6BufferE@Base 0.1
 _ZTSN8osmscout4PathE@Base 0.1
 _ZTSN8osmscout4SRTME@Base 0.1
 _ZTSN8osmscout5CacheImNS_13AreaAreaIndex9IndexCellEmE10ValueSizerE@Base 0.1
 _ZTSN8osmscout5CacheImNS_3RefINS_12NumericIndexImE4PageEEEmE10ValueSizerE@Base 0.1
 _ZTSN8osmscout5CacheImNS_3RefINS_3WayEEEmE10ValueSizerE@Base 0.1
 _ZTSN8osmscout5CacheImNS_3RefINS_4AreaEEEmE10ValueSizerE@Base 0.1
 _ZTSN8osmscout5CacheImNS_3RefINS_4NodeEEEmE10ValueSizerE@Base 0.1
 _ZTSN8osmscout5CacheImNS_3RefINS_9RouteNodeEEEmE10ValueSizerE@Base 0.1
 _ZTSN8osmscout6Logger11DestinationE@Base 0.1
 _ZTSN8osmscout6Logger4LineE@Base 0.1
 _ZTSN8osmscout6LoggerE@Base 0.1
 _ZTSN8osmscout7BreakerE@Base 0.1
 _ZTSN8osmscout7FeatureE@Base 0.1
 _ZTSN8osmscout8DataFileINS_12IntersectionEEE@Base 0.1
 _ZTSN8osmscout8DataFileINS_3WayEE19DataCacheValueSizerE@Base 0.1
 _ZTSN8osmscout8DataFileINS_3WayEEE@Base 0.1
 _ZTSN8osmscout8DataFileINS_4AreaEE19DataCacheValueSizerE@Base 0.1
 _ZTSN8osmscout8DataFileINS_4AreaEEE@Base 0.1
 _ZTSN8osmscout8DataFileINS_4NodeEE19DataCacheValueSizerE@Base 0.1
 _ZTSN8osmscout8DataFileINS_4NodeEEE@Base 0.1
 _ZTSN8osmscout8DataFileINS_9RouteNodeEE19DataCacheValueSizerE@Base 0.1
 _ZTSN8osmscout8DataFileINS_9RouteNodeEEE@Base 0.1
 _ZTSN8osmscout8DatabaseE@Base 0.1
 _ZTSN8osmscout8ProgressE@Base 0.1
 _ZTSN8osmscout8TypeInfoE@Base 0.1
 _ZTSN8osmscout9NumberSet4DataE@Base 0.1
 _ZTSN8osmscout9NumberSet4LeafE@Base 0.1
 _ZTSN8osmscout9NumberSet4RefsE@Base 0.1
 _ZTSN8osmscout9StopClockE@Base 0.1
 _ZTSSt11_Mutex_baseILN9__gnu_cxx12_Lock_policyE2EE@Base 0.1
 _ZTSSt15_Sp_counted_ptrIPN8osmscout8TypeInfoELN9__gnu_cxx12_Lock_policyE2EE@Base 0.1
 _ZTSSt16_Sp_counted_baseILN9__gnu_cxx12_Lock_policyE2EE@Base 0.1
 _ZTSSt19_Sp_make_shared_tag@Base 0.1
 _ZTSSt23_Sp_counted_ptr_inplaceIN8osmscout10TypeConfigESaIS1_ELN9__gnu_cxx12_Lock_policyE2EE@Base 0.1
 _ZTSSt23_Sp_counted_ptr_inplaceIN8osmscout10WaterIndexESaIS1_ELN9__gnu_cxx12_Lock_policyE2EE@Base 0.1
 _ZTSSt23_Sp_counted_ptr_inplaceIN8osmscout11AdminRegionESaIS1_ELN9__gnu_cxx12_Lock_policyE2EE@Base 0.1
 _ZTSSt23_Sp_counted_ptr_inplaceIN8osmscout12AreaWayIndexESaIS1_ELN9__gnu_cxx12_Lock_policyE2EE@Base 0.1
 _ZTSSt23_Sp_counted_ptr_inplaceIN8osmscout12NodeDataFileESaIS1_ELN9__gnu_cxx12_Lock_policyE2EE@Base 0.1
 _ZTSSt23_Sp_counted_ptr_inplaceIN8osmscout13AreaAreaIndexESaIS1_ELN9__gnu_cxx12_Lock_policyE2EE@Base 0.1
 _ZTSSt23_Sp_counted_ptr_inplaceIN8osmscout13AreaNodeIndexESaIS1_ELN9__gnu_cxx12_Lock_policyE2EE@Base 0.1
 _ZTSSt23_Sp_counted_ptr_inplaceIN8osmscout13LocationIndexESaIS1_ELN9__gnu_cxx12_Lock_policyE2EE@Base 0.1
 _ZTSSt23_Sp_counted_ptr_inplaceIN8osmscout14RoutingService5RNodeESaIS2_ELN9__gnu_cxx12_Lock_policyE2EE@Base 0.1
 _ZTSSt23_Sp_counted_ptr_inplaceIN8osmscout19OptimizeWaysLowZoomESaIS1_ELN9__gnu_cxx12_Lock_policyE2EE@Base 0.1
 _ZTSSt23_Sp_counted_ptr_inplaceIN8osmscout20OptimizeAreasLowZoomESaIS1_ELN9__gnu_cxx12_Lock_policyE2EE@Base 0.1
 _ZTSSt23_Sp_counted_ptr_inplaceIN8osmscout3POIESaIS1_ELN9__gnu_cxx12_Lock_policyE2EE@Base 0.1
 _ZTSSt23_Sp_counted_ptr_inplaceIN8osmscout7AddressESaIS1_ELN9__gnu_cxx12_Lock_policyE2EE@Base 0.1
 _ZTSSt23_Sp_counted_ptr_inplaceIN8osmscout8DataFileINS0_3WayEEESaIS3_ELN9__gnu_cxx12_Lock_policyE2EE@Base 0.1
 _ZTSSt23_Sp_counted_ptr_inplaceIN8osmscout8DataFileINS0_4AreaEEESaIS3_ELN9__gnu_cxx12_Lock_policyE2EE@Base 0.1
 _ZTSSt23_Sp_counted_ptr_inplaceIN8osmscout8LocationESaIS1_ELN9__gnu_cxx12_Lock_policyE2EE@Base 0.1
 _ZTSSt23_Sp_counted_ptr_inplaceIN8osmscout8TypeInfoESaIS1_ELN9__gnu_cxx12_Lock_policyE2EE@Base 0.1
 _ZTVN8osmscout10EleFeatureE@Base 0.1
 _ZTVN8osmscout10FileWriterE@Base 0.1
 _ZTVN8osmscout10NoOpLogger15NoOpDestinationE@Base 0.1
 _ZTVN8osmscout10NoOpLoggerE@Base 0.1
 _ZTVN8osmscout10NodeUseMapE@Base 0.1
 _ZTVN8osmscout10POIServiceE@Base 0.1
 _ZTVN8osmscout10ProjectionE@Base 0.1
 _ZTVN8osmscout10RefFeatureE@Base 0.1
 _ZTVN8osmscout10TypeConfigE@Base 0.1
 _ZTVN8osmscout11CoordBufferE@Base 0.1
 _ZTVN8osmscout11FileScannerE@Base 0.1
 _ZTVN8osmscout11NameFeatureE@Base 0.1
 _ZTVN8osmscout11TransBufferE@Base 0.1
 _ZTVN8osmscout12DummyBreakerE@Base 0.1
 _ZTVN8osmscout12FeatureValueE@Base 0.1
 _ZTVN8osmscout12GradeFeatureE@Base 0.1
 _ZTVN8osmscout12IntersectionE@Base 0.1
 _ZTVN8osmscout12LayerFeatureE@Base 0.1
 _ZTVN8osmscout12NodeDataFileE@Base 0.1
 _ZTVN8osmscout12NumericIndexImE27NumericIndexCacheValueSizerE@Base 0.1
 _ZTVN8osmscout12NumericIndexImEE@Base 0.1
 _ZTVN8osmscout12StreamLogger17StreamDestinationE@Base 0.1
 _ZTVN8osmscout12StreamLoggerE@Base 0.1
 _ZTVN8osmscout12TagConditionE@Base 0.1
 _ZTVN8osmscout12TransPolygonE@Base 0.1
 _ZTVN8osmscout12WidthFeatureE@Base 0.1
 _ZTVN8osmscout13AccessFeatureE@Base 0.1
 _ZTVN8osmscout13AreaAreaIndex20IndexCacheValueSizerE@Base 0.1
 _ZTVN8osmscout13BridgeFeatureE@Base 0.1
 _ZTVN8osmscout13ConsoleLoggerE@Base 0.1
 _ZTVN8osmscout13CoordDataFileE@Base 0.1
 _ZTVN8osmscout13DebugDatabaseE@Base 0.1
 _ZTVN8osmscout13LocationIndexE@Base 0.1
 _ZTVN8osmscout13TunnelFeatureE@Base 0.1
 _ZTVN8osmscout14AddressFeatureE@Base 0.1
 _ZTVN8osmscout14AddressVisitorE@Base 0.1
 _ZTVN8osmscout14NameAltFeatureE@Base 0.1
 _ZTVN8osmscout14RoutingProfileE@Base 0.1
 _ZTVN8osmscout14RoutingServiceE@Base 0.1
 _ZTVN8osmscout14TileProjectionE@Base 0.1
 _ZTVN8osmscout15ConsoleProgressE@Base 0.1
 _ZTVN8osmscout15EleFeatureValueE@Base 0.1
 _ZTVN8osmscout15IndexedDataFileImNS_12IntersectionEEE@Base 0.1
 _ZTVN8osmscout15IndexedDataFileImNS_9RouteNodeEEE@Base 0.1
 _ZTVN8osmscout15LocationFeatureE@Base 0.1
 _ZTVN8osmscout15LocationService19AddressMatchVisitorE@Base 0.1
 _ZTVN8osmscout15LocationService20LocationMatchVisitorE@Base 0.1
 _ZTVN8osmscout15LocationService23AdminRegionMatchVisitorE@Base 0.1
 _ZTVN8osmscout15LocationVisitorE@Base 0.1
 _ZTVN8osmscout15MaxSpeedFeatureE@Base 0.1
 _ZTVN8osmscout15RefFeatureValueE@Base 0.1
 _ZTVN8osmscout15TagNotConditionE@Base 0.1
 _ZTVN8osmscout15ThreadedBreakerE@Base 0.1
 _ZTVN8osmscout16NameFeatureValueE@Base 0.1
 _ZTVN8osmscout16RouteDescription11DescriptionE@Base 0.1
 _ZTVN8osmscout16RouteDescription15NameDescriptionE@Base 0.1
 _ZTVN8osmscout16RouteDescription15TurnDescriptionE@Base 0.1
 _ZTVN8osmscout16RouteDescription16StartDescriptionE@Base 0.1
 _ZTVN8osmscout16RouteDescription17TargetDescriptionE@Base 0.1
 _ZTVN8osmscout16RouteDescription20DirectionDescriptionE@Base 0.1
 _ZTVN8osmscout16RouteDescription22NameChangedDescriptionE@Base 0.1
 _ZTVN8osmscout16RouteDescription23CrossingWaysDescriptionE@Base 0.1
 _ZTVN8osmscout16RouteDescription24MotorwayEnterDescriptionE@Base 0.1
 _ZTVN8osmscout16RouteDescription24MotorwayLeaveDescriptionE@Base 0.1
 _ZTVN8osmscout16RouteDescription25MotorwayChangeDescriptionE@Base 0.1
 _ZTVN8osmscout16RouteDescription26RoundaboutEnterDescriptionE@Base 0.1
 _ZTVN8osmscout16RouteDescription26RoundaboutLeaveDescriptionE@Base 0.1
 _ZTVN8osmscout16RouteDescription27MotorwayJunctionDescriptionE@Base 0.1
 _ZTVN8osmscout16RouteDescriptionE@Base 0.1
 _ZTVN8osmscout16TagBoolConditionE@Base 0.1
 _ZTVN8osmscout16TagIsInConditionE@Base 0.1
 _ZTVN8osmscout17AdminLevelFeatureE@Base 0.1
 _ZTVN8osmscout17GradeFeatureValueE@Base 0.1
 _ZTVN8osmscout17LayerFeatureValueE@Base 0.1
 _ZTVN8osmscout17RoundaboutFeatureE@Base 0.1
 _ZTVN8osmscout17WidthFeatureValueE@Base 0.1
 _ZTVN8osmscout18AccessFeatureValueE@Base 0.1
 _ZTVN8osmscout18AddressListVisitorE@Base 0.1
 _ZTVN8osmscout18AdminRegionVisitorE@Base 0.1
 _ZTVN8osmscout18FeatureValueBufferE@Base 0.1
 _ZTVN8osmscout18MercatorProjectionE@Base 0.1
 _ZTVN8osmscout18RoutePostprocessor13PostprocessorE@Base 0.1
 _ZTVN8osmscout18RoutePostprocessor18StartPostprocessorE@Base 0.1
 _ZTVN8osmscout18RoutePostprocessor19TargetPostprocessorE@Base 0.1
 _ZTVN8osmscout18RoutePostprocessor20WayNamePostprocessorE@Base 0.1
 _ZTVN8osmscout18RoutePostprocessor22DirectionPostprocessorE@Base 0.1
 _ZTVN8osmscout18RoutePostprocessor24InstructionPostprocessorE@Base 0.1
 _ZTVN8osmscout18RoutePostprocessor25CrossingWaysPostprocessorE@Base 0.1
 _ZTVN8osmscout18RoutePostprocessor28DistanceAndTimePostprocessorE@Base 0.1
 _ZTVN8osmscout18RoutePostprocessor29MotorwayJunctionPostprocessorE@Base 0.1
 _ZTVN8osmscout18TagBinaryConditionE@Base 0.1
 _ZTVN8osmscout18TagExistsConditionE@Base 0.1
 _ZTVN8osmscout19AddressFeatureValueE@Base 0.1
 _ZTVN8osmscout19NameAltFeatureValueE@Base 0.1
 _ZTVN8osmscout19OptimizeWaysLowZoomE@Base 0.1
 _ZTVN8osmscout20LocationFeatureValueE@Base 0.1
 _ZTVN8osmscout20MaxSpeedFeatureValueE@Base 0.1
 _ZTVN8osmscout20OptimizeAreasLowZoomE@Base 0.1
 _ZTVN8osmscout22AbstractRoutingProfileE@Base 0.1
 _ZTVN8osmscout22AdminLevelFeatureValueE@Base 0.1
 _ZTVN8osmscout23AccessRestrictedFeatureE@Base 0.1
 _ZTVN8osmscout25FastestPathRoutingProfileE@Base 0.1
 _ZTVN8osmscout26ShortestPathRoutingProfileE@Base 0.1
 _ZTVN8osmscout27AddressReverseLookupVisitorE@Base 0.1
 _ZTVN8osmscout28LocationReverseLookupVisitorE@Base 0.1
 _ZTVN8osmscout31AdminRegionReverseLookupVisitorE@Base 0.1
 _ZTVN8osmscout3ost10KeywordMapE@Base 0.1
 _ZTVN8osmscout3ost11StartStatesE@Base 0.1
 _ZTVN8osmscout3ost6BufferE@Base 0.1
 _ZTVN8osmscout4PathE@Base 0.1
 _ZTVN8osmscout4SRTME@Base 0.1
 _ZTVN8osmscout5CacheImNS_13AreaAreaIndex9IndexCellEmE10ValueSizerE@Base 0.1
 _ZTVN8osmscout5CacheImNS_3RefINS_12NumericIndexImE4PageEEEmE10ValueSizerE@Base 0.1
 _ZTVN8osmscout5CacheImNS_3RefINS_3WayEEEmE10ValueSizerE@Base 0.1
 _ZTVN8osmscout5CacheImNS_3RefINS_4AreaEEEmE10ValueSizerE@Base 0.1
 _ZTVN8osmscout5CacheImNS_3RefINS_4NodeEEEmE10ValueSizerE@Base 0.1
 _ZTVN8osmscout5CacheImNS_3RefINS_9RouteNodeEEEmE10ValueSizerE@Base 0.1
 _ZTVN8osmscout6Logger11DestinationE@Base 0.1
 _ZTVN8osmscout6Logger4LineE@Base 0.1
 _ZTVN8osmscout6LoggerE@Base 0.1
 _ZTVN8osmscout7BreakerE@Base 0.1
 _ZTVN8osmscout7FeatureE@Base 0.1
 _ZTVN8osmscout8DataFileINS_12IntersectionEEE@Base 0.1
 _ZTVN8osmscout8DataFileINS_3WayEE19DataCacheValueSizerE@Base 0.1
 _ZTVN8osmscout8DataFileINS_3WayEEE@Base 0.1
 _ZTVN8osmscout8DataFileINS_4AreaEE19DataCacheValueSizerE@Base 0.1
 _ZTVN8osmscout8DataFileINS_4AreaEEE@Base 0.1
 _ZTVN8osmscout8DataFileINS_4NodeEE19DataCacheValueSizerE@Base 0.1
 _ZTVN8osmscout8DataFileINS_4NodeEEE@Base 0.1
 _ZTVN8osmscout8DataFileINS_9RouteNodeEE19DataCacheValueSizerE@Base 0.1
 _ZTVN8osmscout8DataFileINS_9RouteNodeEEE@Base 0.1
 _ZTVN8osmscout8DatabaseE@Base 0.1
 _ZTVN8osmscout8ProgressE@Base 0.1
 _ZTVN8osmscout8TypeInfoE@Base 0.1
 _ZTVN8osmscout9NumberSet4DataE@Base 0.1
 _ZTVN8osmscout9NumberSet4LeafE@Base 0.1
 _ZTVN8osmscout9NumberSet4RefsE@Base 0.1
 _ZTVN8osmscout9StopClockE@Base 0.1
 _ZTVSt15_Sp_counted_ptrIPN8osmscout8TypeInfoELN9__gnu_cxx12_Lock_policyE2EE@Base 0.1
 _ZTVSt16_Sp_counted_baseILN9__gnu_cxx12_Lock_policyE2EE@Base 0.1
 _ZTVSt23_Sp_counted_ptr_inplaceIN8osmscout10TypeConfigESaIS1_ELN9__gnu_cxx12_Lock_policyE2EE@Base 0.1
 _ZTVSt23_Sp_counted_ptr_inplaceIN8osmscout10WaterIndexESaIS1_ELN9__gnu_cxx12_Lock_policyE2EE@Base 0.1
 _ZTVSt23_Sp_counted_ptr_inplaceIN8osmscout11AdminRegionESaIS1_ELN9__gnu_cxx12_Lock_policyE2EE@Base 0.1
 _ZTVSt23_Sp_counted_ptr_inplaceIN8osmscout12AreaWayIndexESaIS1_ELN9__gnu_cxx12_Lock_policyE2EE@Base 0.1
 _ZTVSt23_Sp_counted_ptr_inplaceIN8osmscout12NodeDataFileESaIS1_ELN9__gnu_cxx12_Lock_policyE2EE@Base 0.1
 _ZTVSt23_Sp_counted_ptr_inplaceIN8osmscout13AreaAreaIndexESaIS1_ELN9__gnu_cxx12_Lock_policyE2EE@Base 0.1
 _ZTVSt23_Sp_counted_ptr_inplaceIN8osmscout13AreaNodeIndexESaIS1_ELN9__gnu_cxx12_Lock_policyE2EE@Base 0.1
 _ZTVSt23_Sp_counted_ptr_inplaceIN8osmscout13LocationIndexESaIS1_ELN9__gnu_cxx12_Lock_policyE2EE@Base 0.1
 _ZTVSt23_Sp_counted_ptr_inplaceIN8osmscout14RoutingService5RNodeESaIS2_ELN9__gnu_cxx12_Lock_policyE2EE@Base 0.1
 _ZTVSt23_Sp_counted_ptr_inplaceIN8osmscout19OptimizeWaysLowZoomESaIS1_ELN9__gnu_cxx12_Lock_policyE2EE@Base 0.1
 _ZTVSt23_Sp_counted_ptr_inplaceIN8osmscout20OptimizeAreasLowZoomESaIS1_ELN9__gnu_cxx12_Lock_policyE2EE@Base 0.1
 _ZTVSt23_Sp_counted_ptr_inplaceIN8osmscout3POIESaIS1_ELN9__gnu_cxx12_Lock_policyE2EE@Base 0.1
 _ZTVSt23_Sp_counted_ptr_inplaceIN8osmscout7AddressESaIS1_ELN9__gnu_cxx12_Lock_policyE2EE@Base 0.1
 _ZTVSt23_Sp_counted_ptr_inplaceIN8osmscout8DataFileINS0_3WayEEESaIS3_ELN9__gnu_cxx12_Lock_policyE2EE@Base 0.1
 _ZTVSt23_Sp_counted_ptr_inplaceIN8osmscout8DataFileINS0_4AreaEEESaIS3_ELN9__gnu_cxx12_Lock_policyE2EE@Base 0.1
 _ZTVSt23_Sp_counted_ptr_inplaceIN8osmscout8LocationESaIS1_ELN9__gnu_cxx12_Lock_policyE2EE@Base 0.1
 _ZTVSt23_Sp_counted_ptr_inplaceIN8osmscout8TypeInfoESaIS1_ELN9__gnu_cxx12_Lock_policyE2EE@Base 0.1
