libosmscoutimport.so.0 libosmscoutimport0 #MINVER#
 _ZN3PBF10DenseNodes10SharedCtorEv@Base 0.1
 _ZN3PBF10DenseNodes10SharedDtorEv@Base 0.1
 _ZN3PBF10DenseNodes10descriptorEv@Base 0.1
 _ZN3PBF10DenseNodes14kIdFieldNumberE@Base 0.1
 _ZN3PBF10DenseNodes15kLatFieldNumberE@Base 0.1
 _ZN3PBF10DenseNodes15kLonFieldNumberE@Base 0.1
 _ZN3PBF10DenseNodes16default_instanceEv@Base 0.1
 _ZN3PBF10DenseNodes17default_instance_E@Base 0.1
 _ZN3PBF10DenseNodes20kKeysValsFieldNumberE@Base 0.1
 _ZN3PBF10DenseNodes21InitAsDefaultInstanceEv@Base 0.1
 _ZN3PBF10DenseNodes21kDenseinfoFieldNumberE@Base 0.1
 _ZN3PBF10DenseNodes27MergePartialFromCodedStreamEPN6google8protobuf2io16CodedInputStreamE@Base 0.1
 _ZN3PBF10DenseNodes4SwapEPS0_@Base 0.1
 _ZN3PBF10DenseNodes5ClearEv@Base 0.1
 _ZN3PBF10DenseNodes8CopyFromERKN6google8protobuf7MessageE@Base 0.1
 _ZN3PBF10DenseNodes8CopyFromERKS0_@Base 0.1
 _ZN3PBF10DenseNodes9MergeFromERKN6google8protobuf7MessageE@Base 0.1
 _ZN3PBF10DenseNodes9MergeFromERKS0_@Base 0.1
 _ZN3PBF10DenseNodesC1ERKS0_@Base 0.1
 _ZN3PBF10DenseNodesC1Ev@Base 0.1
 _ZN3PBF10DenseNodesC2ERKS0_@Base 0.1
 _ZN3PBF10DenseNodesC2Ev@Base 0.1
 _ZN3PBF10DenseNodesD0Ev@Base 0.1
 _ZN3PBF10DenseNodesD1Ev@Base 0.1
 _ZN3PBF10DenseNodesD2Ev@Base 0.1
 _ZN3PBF10HeaderBBox10SharedCtorEv@Base 0.1
 _ZN3PBF10HeaderBBox10SharedDtorEv@Base 0.1
 _ZN3PBF10HeaderBBox10descriptorEv@Base 0.1
 _ZN3PBF10HeaderBBox15kTopFieldNumberE@Base 0.1
 _ZN3PBF10HeaderBBox16default_instanceEv@Base 0.1
 _ZN3PBF10HeaderBBox16kLeftFieldNumberE@Base 0.1
 _ZN3PBF10HeaderBBox17default_instance_E@Base 0.1
 _ZN3PBF10HeaderBBox17kRightFieldNumberE@Base 0.1
 _ZN3PBF10HeaderBBox18kBottomFieldNumberE@Base 0.1
 _ZN3PBF10HeaderBBox21InitAsDefaultInstanceEv@Base 0.1
 _ZN3PBF10HeaderBBox27MergePartialFromCodedStreamEPN6google8protobuf2io16CodedInputStreamE@Base 0.1
 _ZN3PBF10HeaderBBox4SwapEPS0_@Base 0.1
 _ZN3PBF10HeaderBBox5ClearEv@Base 0.1
 _ZN3PBF10HeaderBBox8CopyFromERKN6google8protobuf7MessageE@Base 0.1
 _ZN3PBF10HeaderBBox8CopyFromERKS0_@Base 0.1
 _ZN3PBF10HeaderBBox9MergeFromERKN6google8protobuf7MessageE@Base 0.1
 _ZN3PBF10HeaderBBox9MergeFromERKS0_@Base 0.1
 _ZN3PBF10HeaderBBoxC1ERKS0_@Base 0.1
 _ZN3PBF10HeaderBBoxC1Ev@Base 0.1
 _ZN3PBF10HeaderBBoxC2ERKS0_@Base 0.1
 _ZN3PBF10HeaderBBoxC2Ev@Base 0.1
 _ZN3PBF10HeaderBBoxD0Ev@Base 0.1
 _ZN3PBF10HeaderBBoxD1Ev@Base 0.1
 _ZN3PBF10HeaderBBoxD2Ev@Base 0.1
 _ZN3PBF11BlockHeader10SharedCtorEv@Base 0.1
 _ZN3PBF11BlockHeader10SharedDtorEv@Base 0.1
 _ZN3PBF11BlockHeader10descriptorEv@Base 0.1
 _ZN3PBF11BlockHeader16default_instanceEv@Base 0.1
 _ZN3PBF11BlockHeader16kTypeFieldNumberE@Base 0.1
 _ZN3PBF11BlockHeader17default_instance_E@Base 0.1
 _ZN3PBF11BlockHeader20kDatasizeFieldNumberE@Base 0.1
 _ZN3PBF11BlockHeader21InitAsDefaultInstanceEv@Base 0.1
 _ZN3PBF11BlockHeader21kIndexdataFieldNumberE@Base 0.1
 _ZN3PBF11BlockHeader27MergePartialFromCodedStreamEPN6google8protobuf2io16CodedInputStreamE@Base 0.1
 _ZN3PBF11BlockHeader4SwapEPS0_@Base 0.1
 _ZN3PBF11BlockHeader5ClearEv@Base 0.1
 _ZN3PBF11BlockHeader8CopyFromERKN6google8protobuf7MessageE@Base 0.1
 _ZN3PBF11BlockHeader8CopyFromERKS0_@Base 0.1
 _ZN3PBF11BlockHeader9MergeFromERKN6google8protobuf7MessageE@Base 0.1
 _ZN3PBF11BlockHeader9MergeFromERKS0_@Base 0.1
 _ZN3PBF11BlockHeaderC1ERKS0_@Base 0.1
 _ZN3PBF11BlockHeaderC1Ev@Base 0.1
 _ZN3PBF11BlockHeaderC2ERKS0_@Base 0.1
 _ZN3PBF11BlockHeaderC2Ev@Base 0.1
 _ZN3PBF11BlockHeaderD0Ev@Base 0.1
 _ZN3PBF11BlockHeaderD1Ev@Base 0.1
 _ZN3PBF11BlockHeaderD2Ev@Base 0.1
 _ZN3PBF11HeaderBlock10SharedCtorEv@Base 0.1
 _ZN3PBF11HeaderBlock10SharedDtorEv@Base 0.1
 _ZN3PBF11HeaderBlock10descriptorEv@Base 0.1
 _ZN3PBF11HeaderBlock16default_instanceEv@Base 0.1
 _ZN3PBF11HeaderBlock16kBboxFieldNumberE@Base 0.1
 _ZN3PBF11HeaderBlock17default_instance_E@Base 0.1
 _ZN3PBF11HeaderBlock18kSourceFieldNumberE@Base 0.1
 _ZN3PBF11HeaderBlock21InitAsDefaultInstanceEv@Base 0.1
 _ZN3PBF11HeaderBlock26kWritingprogramFieldNumberE@Base 0.1
 _ZN3PBF11HeaderBlock27MergePartialFromCodedStreamEPN6google8protobuf2io16CodedInputStreamE@Base 0.1
 _ZN3PBF11HeaderBlock28kOptionalFeaturesFieldNumberE@Base 0.1
 _ZN3PBF11HeaderBlock28kRequiredFeaturesFieldNumberE@Base 0.1
 _ZN3PBF11HeaderBlock4SwapEPS0_@Base 0.1
 _ZN3PBF11HeaderBlock5ClearEv@Base 0.1
 _ZN3PBF11HeaderBlock8CopyFromERKN6google8protobuf7MessageE@Base 0.1
 _ZN3PBF11HeaderBlock8CopyFromERKS0_@Base 0.1
 _ZN3PBF11HeaderBlock9MergeFromERKN6google8protobuf7MessageE@Base 0.1
 _ZN3PBF11HeaderBlock9MergeFromERKS0_@Base 0.1
 _ZN3PBF11HeaderBlockC1ERKS0_@Base 0.1
 _ZN3PBF11HeaderBlockC1Ev@Base 0.1
 _ZN3PBF11HeaderBlockC2ERKS0_@Base 0.1
 _ZN3PBF11HeaderBlockC2Ev@Base 0.1
 _ZN3PBF11HeaderBlockD0Ev@Base 0.1
 _ZN3PBF11HeaderBlockD1Ev@Base 0.1
 _ZN3PBF11HeaderBlockD2Ev@Base 0.1
 _ZN3PBF11StringTable10SharedCtorEv@Base 0.1
 _ZN3PBF11StringTable10SharedDtorEv@Base 0.1
 _ZN3PBF11StringTable10descriptorEv@Base 0.1
 _ZN3PBF11StringTable13kSFieldNumberE@Base 0.1
 _ZN3PBF11StringTable16default_instanceEv@Base 0.1
 _ZN3PBF11StringTable17default_instance_E@Base 0.1
 _ZN3PBF11StringTable21InitAsDefaultInstanceEv@Base 0.1
 _ZN3PBF11StringTable27MergePartialFromCodedStreamEPN6google8protobuf2io16CodedInputStreamE@Base 0.1
 _ZN3PBF11StringTable4SwapEPS0_@Base 0.1
 _ZN3PBF11StringTable5ClearEv@Base 0.1
 _ZN3PBF11StringTable8CopyFromERKN6google8protobuf7MessageE@Base 0.1
 _ZN3PBF11StringTable8CopyFromERKS0_@Base 0.1
 _ZN3PBF11StringTable9MergeFromERKN6google8protobuf7MessageE@Base 0.1
 _ZN3PBF11StringTable9MergeFromERKS0_@Base 0.1
 _ZN3PBF11StringTableC1ERKS0_@Base 0.1
 _ZN3PBF11StringTableC1Ev@Base 0.1
 _ZN3PBF11StringTableC2ERKS0_@Base 0.1
 _ZN3PBF11StringTableC2Ev@Base 0.1
 _ZN3PBF11StringTableD0Ev@Base 0.1
 _ZN3PBF11StringTableD1Ev@Base 0.1
 _ZN3PBF11StringTableD2Ev@Base 0.1
 _ZN3PBF14PrimitiveBlock10SharedCtorEv@Base 0.1
 _ZN3PBF14PrimitiveBlock10SharedDtorEv@Base 0.1
 _ZN3PBF14PrimitiveBlock10descriptorEv@Base 0.1
 _ZN3PBF14PrimitiveBlock16default_instanceEv@Base 0.1
 _ZN3PBF14PrimitiveBlock17default_instance_E@Base 0.1
 _ZN3PBF14PrimitiveBlock21InitAsDefaultInstanceEv@Base 0.1
 _ZN3PBF14PrimitiveBlock21kLatOffsetFieldNumberE@Base 0.1
 _ZN3PBF14PrimitiveBlock21kLonOffsetFieldNumberE@Base 0.1
 _ZN3PBF14PrimitiveBlock23kGranularityFieldNumberE@Base 0.1
 _ZN3PBF14PrimitiveBlock23kStringtableFieldNumberE@Base 0.1
 _ZN3PBF14PrimitiveBlock26kPrimitivegroupFieldNumberE@Base 0.1
 _ZN3PBF14PrimitiveBlock27MergePartialFromCodedStreamEPN6google8protobuf2io16CodedInputStreamE@Base 0.1
 _ZN3PBF14PrimitiveBlock27kDateGranularityFieldNumberE@Base 0.1
 _ZN3PBF14PrimitiveBlock4SwapEPS0_@Base 0.1
 _ZN3PBF14PrimitiveBlock5ClearEv@Base 0.1
 _ZN3PBF14PrimitiveBlock8CopyFromERKN6google8protobuf7MessageE@Base 0.1
 _ZN3PBF14PrimitiveBlock8CopyFromERKS0_@Base 0.1
 _ZN3PBF14PrimitiveBlock9MergeFromERKN6google8protobuf7MessageE@Base 0.1
 _ZN3PBF14PrimitiveBlock9MergeFromERKS0_@Base 0.1
 _ZN3PBF14PrimitiveBlockC1ERKS0_@Base 0.1
 _ZN3PBF14PrimitiveBlockC1Ev@Base 0.1
 _ZN3PBF14PrimitiveBlockC2ERKS0_@Base 0.1
 _ZN3PBF14PrimitiveBlockC2Ev@Base 0.1
 _ZN3PBF14PrimitiveBlockD0Ev@Base 0.1
 _ZN3PBF14PrimitiveBlockD1Ev@Base 0.1
 _ZN3PBF14PrimitiveBlockD2Ev@Base 0.1
 _ZN3PBF14PrimitiveGroup10SharedCtorEv@Base 0.1
 _ZN3PBF14PrimitiveGroup10SharedDtorEv@Base 0.1
 _ZN3PBF14PrimitiveGroup10descriptorEv@Base 0.1
 _ZN3PBF14PrimitiveGroup16default_instanceEv@Base 0.1
 _ZN3PBF14PrimitiveGroup16kWaysFieldNumberE@Base 0.1
 _ZN3PBF14PrimitiveGroup17default_instance_E@Base 0.1
 _ZN3PBF14PrimitiveGroup17kDenseFieldNumberE@Base 0.1
 _ZN3PBF14PrimitiveGroup17kNodesFieldNumberE@Base 0.1
 _ZN3PBF14PrimitiveGroup21InitAsDefaultInstanceEv@Base 0.1
 _ZN3PBF14PrimitiveGroup21kRelationsFieldNumberE@Base 0.1
 _ZN3PBF14PrimitiveGroup22kChangesetsFieldNumberE@Base 0.1
 _ZN3PBF14PrimitiveGroup27MergePartialFromCodedStreamEPN6google8protobuf2io16CodedInputStreamE@Base 0.1
 _ZN3PBF14PrimitiveGroup4SwapEPS0_@Base 0.1
 _ZN3PBF14PrimitiveGroup5ClearEv@Base 0.1
 _ZN3PBF14PrimitiveGroup8CopyFromERKN6google8protobuf7MessageE@Base 0.1
 _ZN3PBF14PrimitiveGroup8CopyFromERKS0_@Base 0.1
 _ZN3PBF14PrimitiveGroup9MergeFromERKN6google8protobuf7MessageE@Base 0.1
 _ZN3PBF14PrimitiveGroup9MergeFromERKS0_@Base 0.1
 _ZN3PBF14PrimitiveGroupC1ERKS0_@Base 0.1
 _ZN3PBF14PrimitiveGroupC1Ev@Base 0.1
 _ZN3PBF14PrimitiveGroupC2ERKS0_@Base 0.1
 _ZN3PBF14PrimitiveGroupC2Ev@Base 0.1
 _ZN3PBF14PrimitiveGroupD0Ev@Base 0.1
 _ZN3PBF14PrimitiveGroupD1Ev@Base 0.1
 _ZN3PBF14PrimitiveGroupD2Ev@Base 0.1
 _ZN3PBF27Relation_MemberType_IsValidEi@Base 0.1
 _ZN3PBF30Relation_MemberType_descriptorEv@Base 0.1
 _ZN3PBF34protobuf_AddDesc_osmformat_2eprotoEv@Base 0.1
 _ZN3PBF35protobuf_AddDesc_fileformat_2eprotoEv@Base 0.1
 _ZN3PBF37protobuf_AssignDesc_osmformat_2eprotoEv@Base 0.1
 _ZN3PBF38protobuf_AssignDesc_fileformat_2eprotoEv@Base 0.1
 _ZN3PBF39protobuf_ShutdownFile_osmformat_2eprotoEv@Base 0.1
 _ZN3PBF3Way10SharedCtorEv@Base 0.1
 _ZN3PBF3Way10SharedDtorEv@Base 0.1
 _ZN3PBF3Way10descriptorEv@Base 0.1
 _ZN3PBF3Way14kIdFieldNumberE@Base 0.1
 _ZN3PBF3Way16default_instanceEv@Base 0.1
 _ZN3PBF3Way16kInfoFieldNumberE@Base 0.1
 _ZN3PBF3Way16kKeysFieldNumberE@Base 0.1
 _ZN3PBF3Way16kRefsFieldNumberE@Base 0.1
 _ZN3PBF3Way16kValsFieldNumberE@Base 0.1
 _ZN3PBF3Way17default_instance_E@Base 0.1
 _ZN3PBF3Way21InitAsDefaultInstanceEv@Base 0.1
 _ZN3PBF3Way27MergePartialFromCodedStreamEPN6google8protobuf2io16CodedInputStreamE@Base 0.1
 _ZN3PBF3Way4SwapEPS0_@Base 0.1
 _ZN3PBF3Way5ClearEv@Base 0.1
 _ZN3PBF3Way8CopyFromERKN6google8protobuf7MessageE@Base 0.1
 _ZN3PBF3Way8CopyFromERKS0_@Base 0.1
 _ZN3PBF3Way9MergeFromERKN6google8protobuf7MessageE@Base 0.1
 _ZN3PBF3Way9MergeFromERKS0_@Base 0.1
 _ZN3PBF3WayC1ERKS0_@Base 0.1
 _ZN3PBF3WayC1Ev@Base 0.1
 _ZN3PBF3WayC2ERKS0_@Base 0.1
 _ZN3PBF3WayC2Ev@Base 0.1
 _ZN3PBF3WayD0Ev@Base 0.1
 _ZN3PBF3WayD1Ev@Base 0.1
 _ZN3PBF3WayD2Ev@Base 0.1
 _ZN3PBF40protobuf_ShutdownFile_fileformat_2eprotoEv@Base 0.1
 _ZN3PBF48static_descriptor_initializer_osmformat_2eproto_E@Base 0.1
 _ZN3PBF49static_descriptor_initializer_fileformat_2eproto_E@Base 0.1
 _ZN3PBF4Blob10SharedCtorEv@Base 0.1
 _ZN3PBF4Blob10SharedDtorEv@Base 0.1
 _ZN3PBF4Blob10descriptorEv@Base 0.1
 _ZN3PBF4Blob15kRawFieldNumberE@Base 0.1
 _ZN3PBF4Blob16default_instanceEv@Base 0.1
 _ZN3PBF4Blob17default_instance_E@Base 0.1
 _ZN3PBF4Blob19kRawSizeFieldNumberE@Base 0.1
 _ZN3PBF4Blob20kLzmaDataFieldNumberE@Base 0.1
 _ZN3PBF4Blob20kZlibDataFieldNumberE@Base 0.1
 _ZN3PBF4Blob21InitAsDefaultInstanceEv@Base 0.1
 _ZN3PBF4Blob21kBzip2DataFieldNumberE@Base 0.1
 _ZN3PBF4Blob27MergePartialFromCodedStreamEPN6google8protobuf2io16CodedInputStreamE@Base 0.1
 _ZN3PBF4Blob4SwapEPS0_@Base 0.1
 _ZN3PBF4Blob5ClearEv@Base 0.1
 _ZN3PBF4Blob8CopyFromERKN6google8protobuf7MessageE@Base 0.1
 _ZN3PBF4Blob8CopyFromERKS0_@Base 0.1
 _ZN3PBF4Blob9MergeFromERKN6google8protobuf7MessageE@Base 0.1
 _ZN3PBF4Blob9MergeFromERKS0_@Base 0.1
 _ZN3PBF4BlobC1ERKS0_@Base 0.1
 _ZN3PBF4BlobC1Ev@Base 0.1
 _ZN3PBF4BlobC2ERKS0_@Base 0.1
 _ZN3PBF4BlobC2Ev@Base 0.1
 _ZN3PBF4BlobD0Ev@Base 0.1
 _ZN3PBF4BlobD1Ev@Base 0.1
 _ZN3PBF4BlobD2Ev@Base 0.1
 _ZN3PBF4Info10SharedCtorEv@Base 0.1
 _ZN3PBF4Info10SharedDtorEv@Base 0.1
 _ZN3PBF4Info10descriptorEv@Base 0.1
 _ZN3PBF4Info15kUidFieldNumberE@Base 0.1
 _ZN3PBF4Info16default_instanceEv@Base 0.1
 _ZN3PBF4Info17default_instance_E@Base 0.1
 _ZN3PBF4Info19kUserSidFieldNumberE@Base 0.1
 _ZN3PBF4Info19kVersionFieldNumberE@Base 0.1
 _ZN3PBF4Info21InitAsDefaultInstanceEv@Base 0.1
 _ZN3PBF4Info21kChangesetFieldNumberE@Base 0.1
 _ZN3PBF4Info21kTimestampFieldNumberE@Base 0.1
 _ZN3PBF4Info27MergePartialFromCodedStreamEPN6google8protobuf2io16CodedInputStreamE@Base 0.1
 _ZN3PBF4Info4SwapEPS0_@Base 0.1
 _ZN3PBF4Info5ClearEv@Base 0.1
 _ZN3PBF4Info8CopyFromERKN6google8protobuf7MessageE@Base 0.1
 _ZN3PBF4Info8CopyFromERKS0_@Base 0.1
 _ZN3PBF4Info9MergeFromERKN6google8protobuf7MessageE@Base 0.1
 _ZN3PBF4Info9MergeFromERKS0_@Base 0.1
 _ZN3PBF4InfoC1ERKS0_@Base 0.1
 _ZN3PBF4InfoC1Ev@Base 0.1
 _ZN3PBF4InfoC2ERKS0_@Base 0.1
 _ZN3PBF4InfoC2Ev@Base 0.1
 _ZN3PBF4InfoD0Ev@Base 0.1
 _ZN3PBF4InfoD1Ev@Base 0.1
 _ZN3PBF4InfoD2Ev@Base 0.1
 _ZN3PBF4Node10SharedCtorEv@Base 0.1
 _ZN3PBF4Node10SharedDtorEv@Base 0.1
 _ZN3PBF4Node10descriptorEv@Base 0.1
 _ZN3PBF4Node14kIdFieldNumberE@Base 0.1
 _ZN3PBF4Node15kLatFieldNumberE@Base 0.1
 _ZN3PBF4Node15kLonFieldNumberE@Base 0.1
 _ZN3PBF4Node16default_instanceEv@Base 0.1
 _ZN3PBF4Node16kInfoFieldNumberE@Base 0.1
 _ZN3PBF4Node16kKeysFieldNumberE@Base 0.1
 _ZN3PBF4Node16kValsFieldNumberE@Base 0.1
 _ZN3PBF4Node17default_instance_E@Base 0.1
 _ZN3PBF4Node21InitAsDefaultInstanceEv@Base 0.1
 _ZN3PBF4Node27MergePartialFromCodedStreamEPN6google8protobuf2io16CodedInputStreamE@Base 0.1
 _ZN3PBF4Node4SwapEPS0_@Base 0.1
 _ZN3PBF4Node5ClearEv@Base 0.1
 _ZN3PBF4Node8CopyFromERKN6google8protobuf7MessageE@Base 0.1
 _ZN3PBF4Node8CopyFromERKS0_@Base 0.1
 _ZN3PBF4Node9MergeFromERKN6google8protobuf7MessageE@Base 0.1
 _ZN3PBF4Node9MergeFromERKS0_@Base 0.1
 _ZN3PBF4NodeC1ERKS0_@Base 0.1
 _ZN3PBF4NodeC1Ev@Base 0.1
 _ZN3PBF4NodeC2ERKS0_@Base 0.1
 _ZN3PBF4NodeC2Ev@Base 0.1
 _ZN3PBF4NodeD0Ev@Base 0.1
 _ZN3PBF4NodeD1Ev@Base 0.1
 _ZN3PBF4NodeD2Ev@Base 0.1
 _ZN3PBF8Relation10SharedCtorEv@Base 0.1
 _ZN3PBF8Relation10SharedDtorEv@Base 0.1
 _ZN3PBF8Relation10descriptorEv@Base 0.1
 _ZN3PBF8Relation14MemberType_MAXE@Base 0.1
 _ZN3PBF8Relation14MemberType_MINE@Base 0.1
 _ZN3PBF8Relation14kIdFieldNumberE@Base 0.1
 _ZN3PBF8Relation16default_instanceEv@Base 0.1
 _ZN3PBF8Relation16kInfoFieldNumberE@Base 0.1
 _ZN3PBF8Relation16kKeysFieldNumberE@Base 0.1
 _ZN3PBF8Relation16kValsFieldNumberE@Base 0.1
 _ZN3PBF8Relation17default_instance_E@Base 0.1
 _ZN3PBF8Relation17kTypesFieldNumberE@Base 0.1
 _ZN3PBF8Relation18kMemidsFieldNumberE@Base 0.1
 _ZN3PBF8Relation20MemberType_ARRAYSIZEE@Base 0.1
 _ZN3PBF8Relation20kRolesSidFieldNumberE@Base 0.1
 _ZN3PBF8Relation21InitAsDefaultInstanceEv@Base 0.1
 _ZN3PBF8Relation27MergePartialFromCodedStreamEPN6google8protobuf2io16CodedInputStreamE@Base 0.1
 _ZN3PBF8Relation3WAYE@Base 0.1
 _ZN3PBF8Relation4NODEE@Base 0.1
 _ZN3PBF8Relation4SwapEPS0_@Base 0.1
 _ZN3PBF8Relation5ClearEv@Base 0.1
 _ZN3PBF8Relation8CopyFromERKN6google8protobuf7MessageE@Base 0.1
 _ZN3PBF8Relation8CopyFromERKS0_@Base 0.1
 _ZN3PBF8Relation8RELATIONE@Base 0.1
 _ZN3PBF8Relation9MergeFromERKN6google8protobuf7MessageE@Base 0.1
 _ZN3PBF8Relation9MergeFromERKS0_@Base 0.1
 _ZN3PBF8RelationC1ERKS0_@Base 0.1
 _ZN3PBF8RelationC1Ev@Base 0.1
 _ZN3PBF8RelationC2ERKS0_@Base 0.1
 _ZN3PBF8RelationC2Ev@Base 0.1
 _ZN3PBF8RelationD0Ev@Base 0.1
 _ZN3PBF8RelationD1Ev@Base 0.1
 _ZN3PBF8RelationD2Ev@Base 0.1
 _ZN3PBF9ChangeSet10SharedCtorEv@Base 0.1
 _ZN3PBF9ChangeSet10SharedDtorEv@Base 0.1
 _ZN3PBF9ChangeSet10descriptorEv@Base 0.1
 _ZN3PBF9ChangeSet14kIdFieldNumberE@Base 0.1
 _ZN3PBF9ChangeSet16default_instanceEv@Base 0.1
 _ZN3PBF9ChangeSet17default_instance_E@Base 0.1
 _ZN3PBF9ChangeSet21InitAsDefaultInstanceEv@Base 0.1
 _ZN3PBF9ChangeSet27MergePartialFromCodedStreamEPN6google8protobuf2io16CodedInputStreamE@Base 0.1
 _ZN3PBF9ChangeSet4SwapEPS0_@Base 0.1
 _ZN3PBF9ChangeSet5ClearEv@Base 0.1
 _ZN3PBF9ChangeSet8CopyFromERKN6google8protobuf7MessageE@Base 0.1
 _ZN3PBF9ChangeSet8CopyFromERKS0_@Base 0.1
 _ZN3PBF9ChangeSet9MergeFromERKN6google8protobuf7MessageE@Base 0.1
 _ZN3PBF9ChangeSet9MergeFromERKS0_@Base 0.1
 _ZN3PBF9ChangeSetC1ERKS0_@Base 0.1
 _ZN3PBF9ChangeSetC1Ev@Base 0.1
 _ZN3PBF9ChangeSetC2ERKS0_@Base 0.1
 _ZN3PBF9ChangeSetC2Ev@Base 0.1
 _ZN3PBF9ChangeSetD0Ev@Base 0.1
 _ZN3PBF9ChangeSetD1Ev@Base 0.1
 _ZN3PBF9ChangeSetD2Ev@Base 0.1
 _ZN3PBF9DenseInfo10SharedCtorEv@Base 0.1
 _ZN3PBF9DenseInfo10SharedDtorEv@Base 0.1
 _ZN3PBF9DenseInfo10descriptorEv@Base 0.1
 _ZN3PBF9DenseInfo15kUidFieldNumberE@Base 0.1
 _ZN3PBF9DenseInfo16default_instanceEv@Base 0.1
 _ZN3PBF9DenseInfo17default_instance_E@Base 0.1
 _ZN3PBF9DenseInfo19kUserSidFieldNumberE@Base 0.1
 _ZN3PBF9DenseInfo19kVersionFieldNumberE@Base 0.1
 _ZN3PBF9DenseInfo21InitAsDefaultInstanceEv@Base 0.1
 _ZN3PBF9DenseInfo21kChangesetFieldNumberE@Base 0.1
 _ZN3PBF9DenseInfo21kTimestampFieldNumberE@Base 0.1
 _ZN3PBF9DenseInfo27MergePartialFromCodedStreamEPN6google8protobuf2io16CodedInputStreamE@Base 0.1
 _ZN3PBF9DenseInfo4SwapEPS0_@Base 0.1
 _ZN3PBF9DenseInfo5ClearEv@Base 0.1
 _ZN3PBF9DenseInfo8CopyFromERKN6google8protobuf7MessageE@Base 0.1
 _ZN3PBF9DenseInfo8CopyFromERKS0_@Base 0.1
 _ZN3PBF9DenseInfo9MergeFromERKN6google8protobuf7MessageE@Base 0.1
 _ZN3PBF9DenseInfo9MergeFromERKS0_@Base 0.1
 _ZN3PBF9DenseInfoC1ERKS0_@Base 0.1
 _ZN3PBF9DenseInfoC1Ev@Base 0.1
 _ZN3PBF9DenseInfoC2ERKS0_@Base 0.1
 _ZN3PBF9DenseInfoC2Ev@Base 0.1
 _ZN3PBF9DenseInfoD0Ev@Base 0.1
 _ZN3PBF9DenseInfoD1Ev@Base 0.1
 _ZN3PBF9DenseInfoD2Ev@Base 0.1
 _ZN6google8protobuf13RepeatedFieldIiE7ReserveEi@Base 0.1
 _ZN6google8protobuf13RepeatedFieldIjE7ReserveEi@Base 0.1
 _ZN6google8protobuf13RepeatedFieldIlE7ReserveEi@Base 0.1
 _ZN6google8protobuf2io16CodedInputStream12ReadVarint32EPj@Base 0.1
 _ZN6google8protobuf8internal14WireFormatLite19ReadPackedPrimitiveIiLNS2_9FieldTypeE5EEEbPNS0_2io16CodedInputStreamEPNS0_13RepeatedFieldIT_EE@Base 0.1
 _ZN6google8protobuf8internal14WireFormatLite19ReadPackedPrimitiveIjLNS2_9FieldTypeE13EEEbPNS0_2io16CodedInputStreamEPNS0_13RepeatedFieldIT_EE@Base 0.1
 _ZN6google8protobuf8internal14WireFormatLite19ReadPackedPrimitiveIlLNS2_9FieldTypeE18EEEbPNS0_2io16CodedInputStreamEPNS0_13RepeatedFieldIT_EE@Base 0.1
 _ZN6google8protobuf8internal14WireFormatLite21ReadRepeatedPrimitiveIiLNS2_9FieldTypeE5EEEbijPNS0_2io16CodedInputStreamEPNS0_13RepeatedFieldIT_EE@Base 0.1
 _ZN6google8protobuf8internal14WireFormatLite21ReadRepeatedPrimitiveIjLNS2_9FieldTypeE13EEEbijPNS0_2io16CodedInputStreamEPNS0_13RepeatedFieldIT_EE@Base 0.1
 _ZN6google8protobuf8internal14WireFormatLite21ReadRepeatedPrimitiveIlLNS2_9FieldTypeE18EEEbijPNS0_2io16CodedInputStreamEPNS0_13RepeatedFieldIT_EE@Base 0.1
 _ZN8osmscout10Preprocess12ProcessFilesERKSt10shared_ptrINS_10TypeConfigEERKNS_15ImportParameterERNS_8ProgressERNS0_8CallbackE@Base 0.1
 _ZN8osmscout10Preprocess6ImportERKSt10shared_ptrINS_10TypeConfigEERKNS_15ImportParameterERNS_8ProgressE@Base 0.1
 _ZN8osmscout10Preprocess8Callback10InitializeEv@Base 0.1
 _ZN8osmscout10Preprocess8Callback10ProcessWayERKlRSt6vectorIlSaIlEERKSt13unordered_mapItSsSt4hashItESt8equal_toItESaISt4pairIKtSsEEE@Base 0.1
 _ZN8osmscout10Preprocess8Callback10StoreCoordElRKNS_8GeoCoordE@Base 0.1
 _ZN8osmscout10Preprocess8Callback11ProcessNodeERKlRKdS5_RKSt13unordered_mapItSsSt4hashItESt8equal_toItESaISt4pairIKtSsEEE@Base 0.1
 _ZN8osmscout10Preprocess8Callback14IsMultipolygonERKSt13unordered_mapItSsSt4hashItESt8equal_toItESaISt4pairIKtSsEEERSt10shared_ptrINS_8TypeInfoEE@Base 0.1
 _ZN8osmscout10Preprocess8Callback15DumpBoundingBoxEv@Base 0.1
 _ZN8osmscout10Preprocess8Callback15ProcessRelationERKlRKSt6vectorINS_11RawRelation6MemberESaIS6_EERKSt13unordered_mapItSsSt4hashItESt8equal_toItESaISt4pairIKtSsEEE@Base 0.1
 _ZN8osmscout10Preprocess8Callback16DumpDistributionEv@Base 0.1
 _ZN8osmscout10Preprocess8Callback16StoreCurrentPageEv@Base 0.1
 _ZN8osmscout10Preprocess8Callback19ProcessMultipolygonERKSt13unordered_mapItSsSt4hashItESt8equal_toItESaISt4pairIKtSsEEERKSt6vectorINS_11RawRelation6MemberESaISG_EElRKSt10shared_ptrINS_8TypeInfoEE@Base 0.1
 _ZN8osmscout10Preprocess8Callback22ProcessTurnRestrictionERKSt6vectorINS_11RawRelation6MemberESaIS4_EENS_15TurnRestriction4TypeE@Base 0.1
 _ZN8osmscout10Preprocess8Callback7CleanupEb@Base 0.1
 _ZN8osmscout10Preprocess8CallbackC1ERKSt10shared_ptrINS_10TypeConfigEERKNS_15ImportParameterERNS_8ProgressE@Base 0.1
 _ZN8osmscout10Preprocess8CallbackC2ERKSt10shared_ptrINS_10TypeConfigEERKNS_15ImportParameterERNS_8ProgressE@Base 0.1
 _ZN8osmscout10Preprocess8CallbackD0Ev@Base 0.1
 _ZN8osmscout10Preprocess8CallbackD1Ev@Base 0.1
 _ZN8osmscout10Preprocess8CallbackD2Ev@Base 0.1
 _ZN8osmscout10PreprocessD0Ev@Base 0.1
 _ZN8osmscout10PreprocessD1Ev@Base 0.1
 _ZN8osmscout10PreprocessD2Ev@Base 0.1
 _ZN8osmscout11RawRelation4ReadERKNS_10TypeConfigERNS_11FileScannerE@Base 0.1
 _ZN8osmscout11RawRelation5ParseERNS_8ProgressERKNS_10TypeConfigERKSt13unordered_mapItSsSt4hashItESt8equal_toItESaISt4pairIKtSsEEE@Base 0.1
 _ZN8osmscout11RawRelation5SetIdEl@Base 0.1
 _ZN8osmscout11RawRelation7SetTypeERKSt10shared_ptrINS_8TypeInfoEE@Base 0.1
 _ZN8osmscout12AreaIsSimpleINS_8GeoCoordEEEbSt6vectorIT_SaIS3_EE@Base 0.1
 _ZN8osmscout12ImportModuleD0Ev@Base 0.1
 _ZN8osmscout12ImportModuleD1Ev@Base 0.1
 _ZN8osmscout12ImportModuleD2Ev@Base 0.1
 _ZN8osmscout12NumericIndexIlE4OpenERKSsNS_11FileScanner4ModeEb@Base 0.1
 _ZN8osmscout12NumericIndexIlED0Ev@Base 0.1
 _ZN8osmscout12NumericIndexIlED1Ev@Base 0.1
 _ZN8osmscout12NumericIndexIlED2Ev@Base 0.1
 _ZN8osmscout12PreprocessorD0Ev@Base 0.1
 _ZN8osmscout12PreprocessorD1Ev@Base 0.1
 _ZN8osmscout12PreprocessorD2Ev@Base 0.1
 _ZN8osmscout12RawCoastline4ReadERNS_11FileScannerE@Base 0.1
 _ZN8osmscout12RawCoastline5SetIdEl@Base 0.1
 _ZN8osmscout12RawCoastline7SetTypeEb@Base 0.1
 _ZN8osmscout12RawCoastline8SetNodesERKSt6vectorIlSaIlEE@Base 0.1
 _ZN8osmscout13FeatureReaderINS_23AccessRestrictedFeatureEEC1ERKNS_10TypeConfigE@Base 0.1
 _ZN8osmscout13FeatureReaderINS_23AccessRestrictedFeatureEEC2ERKNS_10TypeConfigE@Base 0.1
 _ZN8osmscout13PolygonMergerD1Ev@Base 0.1
 _ZN8osmscout13PolygonMergerD2Ev@Base 0.1
 _ZN8osmscout13PreprocessOSM6ImportERKSt10shared_ptrINS_10TypeConfigEERKNS_15ImportParameterERNS_8ProgressERKSs@Base 0.1
 _ZN8osmscout13PreprocessOSMC1ERNS_20PreprocessorCallbackE@Base 0.1
 _ZN8osmscout13PreprocessOSMC2ERNS_20PreprocessorCallbackE@Base 0.1
 _ZN8osmscout13PreprocessOSMD0Ev@Base 0.1
 _ZN8osmscout13PreprocessOSMD1Ev@Base 0.1
 _ZN8osmscout13PreprocessOSMD2Ev@Base 0.1
 _ZN8osmscout13PreprocessPBF13ReadRelationsERKNS_10TypeConfigERKN3PBF14PrimitiveBlockERKNS4_14PrimitiveGroupE@Base 0.1
 _ZN8osmscout13PreprocessPBF14ReadDenseNodesERKNS_10TypeConfigERKN3PBF14PrimitiveBlockERKNS4_14PrimitiveGroupE@Base 0.1
 _ZN8osmscout13PreprocessPBF6ImportERKSt10shared_ptrINS_10TypeConfigEERKNS_15ImportParameterERNS_8ProgressERKSs@Base 0.1
 _ZN8osmscout13PreprocessPBF8ReadWaysERKNS_10TypeConfigERKN3PBF14PrimitiveBlockERKNS4_14PrimitiveGroupE@Base 0.1
 _ZN8osmscout13PreprocessPBF9ReadNodesERKNS_10TypeConfigERKN3PBF14PrimitiveBlockERKNS4_14PrimitiveGroupE@Base 0.1
 _ZN8osmscout13PreprocessPBFC1ERNS_20PreprocessorCallbackE@Base 0.1
 _ZN8osmscout13PreprocessPBFC2ERNS_20PreprocessorCallbackE@Base 0.1
 _ZN8osmscout13PreprocessPBFD0Ev@Base 0.1
 _ZN8osmscout13PreprocessPBFD1Ev@Base 0.1
 _ZN8osmscout13PreprocessPBFD2Ev@Base 0.1
 _ZN8osmscout14GetBoundingBoxINS_8GeoCoordEEEvRKSt6vectorIT_SaIS3_EERNS_6GeoBoxE@Base 0.1
 _ZN8osmscout14GetBoundingBoxINS_8GeoCoordEEEvRKSt6vectorIT_SaIS3_EERdS8_S8_S8_@Base 0.1
 _ZN8osmscout14SilentProgressD0Ev@Base 0.1
 _ZN8osmscout14SilentProgressD1Ev@Base 0.1
 _ZN8osmscout14SilentProgressD2Ev@Base 0.1
 _ZN8osmscout15ImportParameter11SetMapfilesERKSt4listISsSaISsEE@Base 0.1
 _ZN8osmscout15ImportParameter11SetTypefileERKSs@Base 0.1
 _ZN8osmscout15ImportParameter12SetStartStepEm@Base 0.1
 _ZN8osmscout15ImportParameter13SetAssumeLandEb@Base 0.1
 _ZN8osmscout15ImportParameter14SetSortObjectsEb@Base 0.1
 _ZN8osmscout15ImportParameter14SetSortTileMagEm@Base 0.1
 _ZN8osmscout15ImportParameter14SetStrictAreasEb@Base 0.1
 _ZN8osmscout15ImportParameter16SetAreaWayMinMagEm@Base 0.1
 _ZN8osmscout15ImportParameter16SetSortBlockSizeEm@Base 0.1
 _ZN8osmscout15ImportParameter17SetAreaNodeMinMagEm@Base 0.1
 _ZN8osmscout15ImportParameter18SetRawWayBlockSizeEm@Base 0.1
 _ZN8osmscout15ImportParameter19SetWaterIndexMaxMagEm@Base 0.1
 _ZN8osmscout15ImportParameter19SetWaterIndexMinMagEm@Base 0.1
 _ZN8osmscout15ImportParameter19SetWayDataCacheSizeEm@Base 0.1
 _ZN8osmscout15ImportParameter20SetAreaDataCacheSizeEm@Base 0.1
 _ZN8osmscout15ImportParameter21SetOptimizationMaxMagEm@Base 0.1
 _ZN8osmscout15ImportParameter21SetOptimizationMinMagEm@Base 0.1
 _ZN8osmscout15ImportParameter21SetRouteNodeBlockSizeEm@Base 0.1
 _ZN8osmscout15ImportParameter21SetWayDataMemoryMapedEb@Base 0.1
 _ZN8osmscout15ImportParameter22SetAreaAreaIndexMaxMagEm@Base 0.1
 _ZN8osmscout15ImportParameter22SetAreaDataMemoryMapedEb@Base 0.1
 _ZN8osmscout15ImportParameter22SetRawWayDataCacheSizeEm@Base 0.1
 _ZN8osmscout15ImportParameter23SetCoordDataMemoryMapedEb@Base 0.1
 _ZN8osmscout15ImportParameter23SetDestinationDirectoryERKSs@Base 0.1
 _ZN8osmscout15ImportParameter23SetNumericIndexPageSizeEm@Base 0.1
 _ZN8osmscout15ImportParameter23SetRawNodeDataCacheSizeEm@Base 0.1
 _ZN8osmscout15ImportParameter23SetRawWayIndexCacheSizeEm@Base 0.1
 _ZN8osmscout15ImportParameter24SetOptimizationWayMethodENS_12TransPolygon14OptimizeMethodE@Base 0.1
 _ZN8osmscout15ImportParameter24SetRawWayDataMemoryMapedEb@Base 0.1
 _ZN8osmscout15ImportParameter25SetRawNodeDataMemoryMapedEb@Base 0.1
 _ZN8osmscout15ImportParameter25SetRawWayIndexMemoryMapedEb@Base 0.1
 _ZN8osmscout15ImportParameter26SetOptimizationCellSizeMaxEm@Base 0.1
 _ZN8osmscout15ImportParameter26SetOptimizationMaxWayCountEm@Base 0.1
 _ZN8osmscout15ImportParameter27SetAreaNodeIndexCellSizeMaxEm@Base 0.1
 _ZN8osmscout15ImportParameter27SetAreaNodeIndexMinFillRateEd@Base 0.1
 _ZN8osmscout15ImportParameter30SetOptimizationCellSizeAverageEm@Base 0.1
 _ZN8osmscout15ImportParameter31SetAreaNodeIndexCellSizeAverageEm@Base 0.1
 _ZN8osmscout15ImportParameter8SetStepsEmm@Base 0.1
 _ZN8osmscout15ImportParameterC1Ev@Base 0.1
 _ZN8osmscout15ImportParameterC2Ev@Base 0.1
 _ZN8osmscout15IndexedDataFileIlNS_11RawRelationEED0Ev@Base 0.1
 _ZN8osmscout15IndexedDataFileIlNS_11RawRelationEED1Ev@Base 0.1
 _ZN8osmscout15IndexedDataFileIlNS_11RawRelationEED2Ev@Base 0.1
 _ZN8osmscout15IndexedDataFileIlNS_6RawWayEED0Ev@Base 0.1
 _ZN8osmscout15IndexedDataFileIlNS_6RawWayEED1Ev@Base 0.1
 _ZN8osmscout15IndexedDataFileIlNS_6RawWayEED2Ev@Base 0.1
 _ZN8osmscout15ReadBlockHeaderERNS_8ProgressEP8_IO_FILERN3PBF11BlockHeaderEb@Base 0.1
 _ZN8osmscout15ReadHeaderBlockERNS_8ProgressEP8_IO_FILERKN3PBF11BlockHeaderERNS4_11HeaderBlockE@Base 0.1
 _ZN8osmscout17NodeDataGenerator6ImportERKSt10shared_ptrINS_10TypeConfigEERKNS_15ImportParameterERNS_8ProgressE@Base 0.1
 _ZN8osmscout17NodeDataGeneratorD0Ev@Base 0.1
 _ZN8osmscout17NodeDataGeneratorD1Ev@Base 0.1
 _ZN8osmscout17NodeDataGeneratorD2Ev@Base 0.1
 _ZN8osmscout17SortDataGeneratorINS_3WayEE16ProcessingFilter18AfterProcessingEndERKNS_15ImportParameterERNS_8ProgressERKNS_10TypeConfigE@Base 0.1
 _ZN8osmscout17SortDataGeneratorINS_3WayEE16ProcessingFilter21BeforeProcessingStartERKNS_15ImportParameterERNS_8ProgressERKNS_10TypeConfigE@Base 0.1
 _ZN8osmscout17SortDataGeneratorINS_3WayEE16ProcessingFilterD0Ev@Base 0.1
 _ZN8osmscout17SortDataGeneratorINS_3WayEE16ProcessingFilterD1Ev@Base 0.1
 _ZN8osmscout17SortDataGeneratorINS_3WayEE16ProcessingFilterD2Ev@Base 0.1
 _ZN8osmscout17SortDataGeneratorINS_3WayEE4CopyERKNS_10TypeConfigERKNS_15ImportParameterERNS_8ProgressE@Base 0.1
 _ZN8osmscout17SortDataGeneratorINS_3WayEE6ImportERKSt10shared_ptrINS_10TypeConfigEERKNS_15ImportParameterERNS_8ProgressE@Base 0.1
 _ZN8osmscout17SortDataGeneratorINS_3WayEE8RenumberERKNS_10TypeConfigERKNS_15ImportParameterERNS_8ProgressE@Base 0.1
 _ZN8osmscout17SortDataGeneratorINS_3WayEE9AddSourceERKSs@Base 0.1
 _ZN8osmscout17SortDataGeneratorINS_3WayEED0Ev@Base 0.1
 _ZN8osmscout17SortDataGeneratorINS_3WayEED1Ev@Base 0.1
 _ZN8osmscout17SortDataGeneratorINS_3WayEED2Ev@Base 0.1
 _ZN8osmscout17SortDataGeneratorINS_4AreaEE16ProcessingFilter18AfterProcessingEndERKNS_15ImportParameterERNS_8ProgressERKNS_10TypeConfigE@Base 0.1
 _ZN8osmscout17SortDataGeneratorINS_4AreaEE16ProcessingFilter21BeforeProcessingStartERKNS_15ImportParameterERNS_8ProgressERKNS_10TypeConfigE@Base 0.1
 _ZN8osmscout17SortDataGeneratorINS_4AreaEE16ProcessingFilterD0Ev@Base 0.1
 _ZN8osmscout17SortDataGeneratorINS_4AreaEE16ProcessingFilterD1Ev@Base 0.1
 _ZN8osmscout17SortDataGeneratorINS_4AreaEE16ProcessingFilterD2Ev@Base 0.1
 _ZN8osmscout17SortDataGeneratorINS_4AreaEE4CopyERKNS_10TypeConfigERKNS_15ImportParameterERNS_8ProgressE@Base 0.1
 _ZN8osmscout17SortDataGeneratorINS_4AreaEE6ImportERKSt10shared_ptrINS_10TypeConfigEERKNS_15ImportParameterERNS_8ProgressE@Base 0.1
 _ZN8osmscout17SortDataGeneratorINS_4AreaEE8RenumberERKNS_10TypeConfigERKNS_15ImportParameterERNS_8ProgressE@Base 0.1
 _ZN8osmscout17SortDataGeneratorINS_4AreaEE9AddSourceERKSs@Base 0.1
 _ZN8osmscout17SortDataGeneratorINS_4AreaEED0Ev@Base 0.1
 _ZN8osmscout17SortDataGeneratorINS_4AreaEED1Ev@Base 0.1
 _ZN8osmscout17SortDataGeneratorINS_4AreaEED2Ev@Base 0.1
 _ZN8osmscout17SortDataGeneratorINS_4NodeEE16ProcessingFilter18AfterProcessingEndERKNS_15ImportParameterERNS_8ProgressERKNS_10TypeConfigE@Base 0.1
 _ZN8osmscout17SortDataGeneratorINS_4NodeEE16ProcessingFilter21BeforeProcessingStartERKNS_15ImportParameterERNS_8ProgressERKNS_10TypeConfigE@Base 0.1
 _ZN8osmscout17SortDataGeneratorINS_4NodeEE16ProcessingFilterD0Ev@Base 0.1
 _ZN8osmscout17SortDataGeneratorINS_4NodeEE16ProcessingFilterD1Ev@Base 0.1
 _ZN8osmscout17SortDataGeneratorINS_4NodeEE16ProcessingFilterD2Ev@Base 0.1
 _ZN8osmscout17SortDataGeneratorINS_4NodeEE4CopyERKNS_10TypeConfigERKNS_15ImportParameterERNS_8ProgressE@Base 0.1
 _ZN8osmscout17SortDataGeneratorINS_4NodeEE6ImportERKSt10shared_ptrINS_10TypeConfigEERKNS_15ImportParameterERNS_8ProgressE@Base 0.1
 _ZN8osmscout17SortDataGeneratorINS_4NodeEE8RenumberERKNS_10TypeConfigERKNS_15ImportParameterERNS_8ProgressE@Base 0.1
 _ZN8osmscout17SortDataGeneratorINS_4NodeEE9AddSourceERKSs@Base 0.1
 _ZN8osmscout17SortDataGeneratorINS_4NodeEED0Ev@Base 0.1
 _ZN8osmscout17SortDataGeneratorINS_4NodeEED1Ev@Base 0.1
 _ZN8osmscout17SortDataGeneratorINS_4NodeEED2Ev@Base 0.1
 _ZN8osmscout17TypeDataGenerator6ImportERKSt10shared_ptrINS_10TypeConfigEERKNS_15ImportParameterERNS_8ProgressE@Base 0.1
 _ZN8osmscout17TypeDataGeneratorD0Ev@Base 0.1
 _ZN8osmscout17TypeDataGeneratorD1Ev@Base 0.1
 _ZN8osmscout17TypeDataGeneratorD2Ev@Base 0.1
 _ZN8osmscout18FeatureValueReaderINS_11NameFeatureENS_16NameFeatureValueEEC1ERKNS_10TypeConfigE@Base 0.1
 _ZN8osmscout18FeatureValueReaderINS_11NameFeatureENS_16NameFeatureValueEEC2ERKNS_10TypeConfigE@Base 0.1
 _ZN8osmscout18FeatureValueReaderINS_12GradeFeatureENS_17GradeFeatureValueEEC1ERKNS_10TypeConfigE@Base 0.1
 _ZN8osmscout18FeatureValueReaderINS_12GradeFeatureENS_17GradeFeatureValueEEC2ERKNS_10TypeConfigE@Base 0.1
 _ZN8osmscout18FeatureValueReaderINS_13AccessFeatureENS_18AccessFeatureValueEEC1ERKNS_10TypeConfigE@Base 0.1
 _ZN8osmscout18FeatureValueReaderINS_13AccessFeatureENS_18AccessFeatureValueEEC2ERKNS_10TypeConfigE@Base 0.1
 _ZN8osmscout18FeatureValueReaderINS_14AddressFeatureENS_19AddressFeatureValueEEC1ERKNS_10TypeConfigE@Base 0.1
 _ZN8osmscout18FeatureValueReaderINS_14AddressFeatureENS_19AddressFeatureValueEEC2ERKNS_10TypeConfigE@Base 0.1
 _ZN8osmscout18FeatureValueReaderINS_15LocationFeatureENS_20LocationFeatureValueEEC1ERKNS_10TypeConfigE@Base 0.1
 _ZN8osmscout18FeatureValueReaderINS_15LocationFeatureENS_20LocationFeatureValueEEC2ERKNS_10TypeConfigE@Base 0.1
 _ZN8osmscout18FeatureValueReaderINS_15MaxSpeedFeatureENS_20MaxSpeedFeatureValueEEC1ERKNS_10TypeConfigE@Base 0.1
 _ZN8osmscout18FeatureValueReaderINS_15MaxSpeedFeatureENS_20MaxSpeedFeatureValueEEC2ERKNS_10TypeConfigE@Base 0.1
 _ZN8osmscout18FeatureValueReaderINS_17AdminLevelFeatureENS_22AdminLevelFeatureValueEEC1ERKNS_10TypeConfigE@Base 0.1
 _ZN8osmscout18FeatureValueReaderINS_17AdminLevelFeatureENS_22AdminLevelFeatureValueEEC2ERKNS_10TypeConfigE@Base 0.1
 _ZN8osmscout18ReadPrimitiveBlockERNS_8ProgressEP8_IO_FILERKN3PBF11BlockHeaderERNS4_14PrimitiveBlockE@Base 0.1
 _ZN8osmscout18RouteDataGenerator13ResolveWayIdsERKNS_15ImportParameterERNS_8ProgressERSt3mapIlmSt4lessIlESaISt4pairIKlmEEE@Base 0.1
 _ZN8osmscout18RouteDataGenerator14ResolveNodeIdsERKNS_15ImportParameterERNS_8ProgressERSt3mapIlmSt4lessIlESaISt4pairIKlmEEE@Base 0.1
 _ZN8osmscout18RouteDataGenerator15WriteRouteGraphERKNS_15ImportParameterERNS_8ProgressERKNS_10TypeConfigERKSt3mapImSt4listINS_13ObjectFileRefESaISB_EESt4lessImESaISt4pairIKmSD_EEERKS9_ImSt6vectorINS0_19TurnRestrictionDataESaISO_EESF_SaISG_ISH_SQ_EEENS_7VehicleERKSs@Base 0.1
 _ZN8osmscout18RouteDataGenerator17CalculateWayPathsERNS_9RouteNodeERKNS_3WayEmRKSt3mapImSt4listINS_13ObjectFileRefESaIS8_EESt4lessImESaISt4pairIKmSA_EEERKSt13unordered_mapImmSt4hashImESt8equal_toImESaISD_ISE_mEEERS6_ImS7_INS0_13PendingOffsetESaISU_EESC_SaISD_ISE_SW_EEE@Base 0.1
 _ZN8osmscout18RouteDataGenerator17ReadIntersectionsERKNS_15ImportParameterERNS_8ProgressERKNS_10TypeConfigERNS_10NodeUseMapE@Base 0.1
 _ZN8osmscout18RouteDataGenerator18CalculateAreaPathsERNS_9RouteNodeERKNS_4AreaEmRKSt3mapImSt4listINS_13ObjectFileRefESaIS8_EESt4lessImESaISt4pairIKmSA_EEERKSt13unordered_mapImmSt4hashImESt8equal_toImESaISD_ISE_mEEERS6_ImS7_INS0_13PendingOffsetESaISU_EESC_SaISD_ISE_SW_EEE@Base 0.1
 _ZN8osmscout18RouteDataGenerator18WriteIntersectionsERKNS_15ImportParameterERNS_8ProgressERSt3mapImSt4listINS_13ObjectFileRefESaIS8_EESt4lessImESaISt4pairIKmSA_EEE@Base 0.1
 _ZN8osmscout18RouteDataGenerator20HandlePendingOffsetsERNS_8ProgressERKSt13unordered_mapImmSt4hashImESt8equal_toImESaISt4pairIKmmEEERSt3mapImSt4listINS0_13PendingOffsetESaISH_EESt4lessImESaIS8_IS9_SJ_EEERNS_10FileWriterERKSt6vectorISt23_Rb_tree_const_iteratorIS8_IS9_SG_INS_13ObjectFileRefESaISU_EEEESaISY_EEm@Base 0.1
 _ZN8osmscout18RouteDataGenerator20ReadTurnRestrictionsERKNS_15ImportParameterERNS_8ProgressERSt3mapImSt6vectorINS0_19TurnRestrictionDataESaIS8_EESt4lessImESaISt4pairIKmSA_EEE@Base 0.1
 _ZN8osmscout18RouteDataGenerator21FillRoutePathExcludesERNS_9RouteNodeERKSt4listINS_13ObjectFileRefESaIS4_EERKSt3mapImSt6vectorINS0_19TurnRestrictionDataESaISB_EESt4lessImESaISt4pairIKmSD_EEE@Base 0.1
 _ZN8osmscout18RouteDataGenerator22ReadTurnRestrictionIdsERKNS_15ImportParameterERNS_8ProgressERSt3mapIlmSt4lessIlESaISt4pairIKlmEEESE_@Base 0.1
 _ZN8osmscout18RouteDataGenerator23ReadTurnRestrictionDataERKNS_15ImportParameterERNS_8ProgressERKSt3mapIlmSt4lessIlESaISt4pairIKlmEEESF_RS6_ImSt6vectorINS0_19TurnRestrictionDataESaISH_EES7_ImESaIS9_IKmSJ_EEE@Base 0.1
 _ZN8osmscout18RouteDataGenerator25CalculateCircularWayPathsERNS_9RouteNodeERKNS_3WayEmRKSt3mapImSt4listINS_13ObjectFileRefESaIS8_EESt4lessImESaISt4pairIKmSA_EEERKSt13unordered_mapImmSt4hashImESt8equal_toImESaISD_ISE_mEEERS6_ImS7_INS0_13PendingOffsetESaISU_EESC_SaISD_ISE_SW_EEE@Base 0.1
 _ZN8osmscout18RouteDataGenerator26ReadObjectsAtIntersectionsERKNS_15ImportParameterERNS_8ProgressERKNS_10TypeConfigERKNS_10NodeUseMapERSt3mapImSt4listINS_13ObjectFileRefESaISE_EESt4lessImESaISt4pairIKmSG_EEE@Base 0.1
 _ZN8osmscout18RouteDataGenerator6ImportERKSt10shared_ptrINS_10TypeConfigEERKNS_15ImportParameterERNS_8ProgressE@Base 0.1
 _ZN8osmscout18RouteDataGenerator8LoadWaysERKNS_10TypeConfigERNS_8ProgressERNS_11FileScannerERKSt3setImSt4lessImESaImEERSt13unordered_mapImNS_3RefINS_3WayEEESt4hashImESt8equal_toImESaISt4pairIKmSI_EEE@Base 0.1
 _ZN8osmscout18RouteDataGenerator9LoadAreasERKNS_10TypeConfigERNS_8ProgressERNS_11FileScannerERKSt3setImSt4lessImESaImEERSt13unordered_mapImNS_3RefINS_4AreaEEESt4hashImESt8equal_toImESaISt4pairIKmSI_EEE@Base 0.1
 _ZN8osmscout18RouteDataGeneratorC1Ev@Base 0.1
 _ZN8osmscout18RouteDataGeneratorC2Ev@Base 0.1
 _ZN8osmscout18RouteDataGeneratorD0Ev@Base 0.1
 _ZN8osmscout18RouteDataGeneratorD1Ev@Base 0.1
 _ZN8osmscout18RouteDataGeneratorD2Ev@Base 0.1
 _ZN8osmscout19GetLineIntersectionINS_8GeoCoordEEEbRKT_S4_S4_S4_RS2_@Base 0.1
 _ZN8osmscout19MergeAreasGenerator10MergeAreasERKNS_10NodeUseMapERSt4listINS_3RefINS_4AreaEEESaIS7_EESA_RSt13unordered_setImSt4hashImESt8equal_toImESaImEE@Base 0.1
 _ZN8osmscout19MergeAreasGenerator11ScanAreaIdsERKNS_15ImportParameterERNS_8ProgressERKNS_10TypeConfigERKNS_11TypeInfoSetERSt6vectorINS_10NodeUseMapESaISD_EE@Base 0.1
 _ZN8osmscout19MergeAreasGenerator16EraseAreaInCacheERKNS_10NodeUseMapERSt13unordered_mapImSt4listINS_3RefINS_4AreaEEESaIS8_EESt4hashImESt8equal_toImESaISt4pairIKmSA_EEERKS8_@Base 0.1
 _ZN8osmscout19MergeAreasGenerator6ImportERKSt10shared_ptrINS_10TypeConfigEERKNS_15ImportParameterERNS_8ProgressE@Base 0.1
 _ZN8osmscout19MergeAreasGenerator8GetAreasERKNS_15ImportParameterERNS_8ProgressERKNS_10TypeConfigERNS_11TypeInfoSetERSt6vectorINS_10NodeUseMapESaISC_EERNS_11FileScannerERSB_ISt4listINS_3RefINS_4AreaEEESaISL_EESaISN_EE@Base 0.1
 _ZN8osmscout19MergeAreasGeneratorD0Ev@Base 0.1
 _ZN8osmscout19MergeAreasGeneratorD1Ev@Base 0.1
 _ZN8osmscout19MergeAreasGeneratorD2Ev@Base 0.1
 _ZN8osmscout19WaterIndexGenerator10AssumeLandERKNS_15ImportParameterERNS_8ProgressERKNS_10TypeConfigERNS0_5LevelE@Base 0.1
 _ZN8osmscout19WaterIndexGenerator12WalkBorderCWERNS_10GroundTileERKNS0_5LevelEddRKPNS0_12IntersectionES9_PKNS1_5CoordE@Base 0.1
 _ZN8osmscout19WaterIndexGenerator12WalkPathBackERNS_10GroundTileERKNS0_5LevelEddRKPNS0_12IntersectionES9_RKSt6vectorINS_8GeoCoordESaISB_EEb@Base 0.1
 _ZN8osmscout19WaterIndexGenerator14LoadCoastlinesERKNS_15ImportParameterERNS_8ProgressERSt4listINS_3RefINS0_5CoastEEESaIS9_EE@Base 0.1
 _ZN8osmscout19WaterIndexGenerator15DumpIndexHeaderERKNS_15ImportParameterERNS_10FileWriterERSt6vectorINS0_5LevelESaIS7_EE@Base 0.1
 _ZN8osmscout19WaterIndexGenerator15MergeCoastlinesERNS_8ProgressERSt4listINS_3RefINS0_5CoastEEESaIS6_EE@Base 0.1
 _ZN8osmscout19WaterIndexGenerator16GetCoastlineDataERKNS_15ImportParameterERNS_8ProgressERNS_10ProjectionERKNS0_5LevelERKSt4listINS_3RefINS0_5CoastEEESaISE_EERNS0_4DataE@Base 0.1
 _ZN8osmscout19WaterIndexGenerator18CalculateLandCellsERNS_8ProgressERNS0_5LevelERKSt3mapINS_5PixelESt4listINS_10GroundTileESaIS8_EESt4lessIS6_ESaISt4pairIKS6_SA_EEE@Base 0.1
 _ZN8osmscout19WaterIndexGenerator18MarkCoastlineCellsERNS_8ProgressERKSt4listINS_3RefINS0_5CoastEEESaIS6_EERNS0_5LevelE@Base 0.1
 _ZN8osmscout19WaterIndexGenerator20GetCellIntersectionsERKNS0_5LevelERKSt6vectorINS_8GeoCoordESaIS5_EEmRSt3mapINS_5PixelESt4listINS0_12IntersectionESaISD_EESt4lessISB_ESaISt4pairIKSB_SF_EEE@Base 0.1
 _ZN8osmscout19WaterIndexGenerator23GetPreviousIntersectionERSt4listIPNS0_12IntersectionESaIS3_EERKS3_@Base 0.1
 _ZN8osmscout19WaterIndexGenerator32HandleCoastlinesPartiallyInACellERNS_8ProgressERKSt4listINS_3RefINS0_5CoastEEESaIS6_EERKNS0_5LevelERSt3mapINS_5PixelES3_INS_10GroundTileESaISG_EESt4lessISF_ESaISt4pairIKSF_SI_EEERNS0_4DataE@Base 0.1
 _ZN8osmscout19WaterIndexGenerator37HandleAreaCoastlinesCompletelyInACellERNS_8ProgressERKNS0_5LevelERNS0_4DataERSt3mapINS_5PixelESt4listINS_10GroundTileESaISB_EESt4lessIS9_ESaISt4pairIKS9_SD_EEE@Base 0.1
 _ZN8osmscout19WaterIndexGenerator5Level16SetStateAbsoluteEjjNS0_5StateE@Base 0.1
 _ZN8osmscout19WaterIndexGenerator5Level6SetBoxERKNS_8GeoCoordES4_dd@Base 0.1
 _ZN8osmscout19WaterIndexGenerator5Level8SetStateEjjNS0_5StateE@Base 0.1
 _ZN8osmscout19WaterIndexGenerator6ImportERKSt10shared_ptrINS_10TypeConfigEERKNS_15ImportParameterERNS_8ProgressE@Base 0.1
 _ZN8osmscout19WaterIndexGenerator8FillLandERNS_8ProgressERNS0_5LevelE@Base 0.1
 _ZN8osmscout19WaterIndexGenerator8GetCellsERKNS0_5LevelERKNS_8GeoCoordES6_RSt3setINS_5PixelESt4lessIS8_ESaIS8_EE@Base 0.1
 _ZN8osmscout19WaterIndexGenerator8GetCellsERKNS0_5LevelERKSt6vectorINS_8GeoCoordESaIS5_EERSt3setINS_5PixelESt4lessISB_ESaISB_EE@Base 0.1
 _ZN8osmscout19WaterIndexGenerator9FillWaterERNS_8ProgressERNS0_5LevelEm@Base 0.1
 _ZN8osmscout19WaterIndexGenerator9TransformERKNS_8GeoCoordERKNS0_5LevelEddb@Base 0.1
 _ZN8osmscout19WaterIndexGeneratorD0Ev@Base 0.1
 _ZN8osmscout19WaterIndexGeneratorD1Ev@Base 0.1
 _ZN8osmscout19WaterIndexGeneratorD2Ev@Base 0.1
 _ZN8osmscout19WayWayDataGenerator12DistributionC1Ev@Base 0.1
 _ZN8osmscout19WayWayDataGenerator12DistributionC2Ev@Base 0.1
 _ZN8osmscout19WayWayDataGenerator18UpdateRestrictionsERSt8multimapIlNS_3RefINS_15TurnRestrictionEEESt4lessIlESaISt4pairIKlS4_EEEll@Base 0.1
 _ZN8osmscout19WayWayDataGenerator20ReadTurnRestrictionsERKNS_15ImportParameterERNS_8ProgressERSt8multimapIlNS_3RefINS_15TurnRestrictionEEESt4lessIlESaISt4pairIKlS9_EEE@Base 0.1
 _ZN8osmscout19WayWayDataGenerator21WriteTurnRestrictionsERKNS_15ImportParameterERNS_8ProgressERSt8multimapIlNS_3RefINS_15TurnRestrictionEEESt4lessIlESaISt4pairIKlS9_EEE@Base 0.1
 _ZN8osmscout19WayWayDataGenerator23HandleLowMemoryFallbackERNS_8ProgressERKNS_10TypeConfigERNS_11FileScannerERKNS_11TypeInfoSetERNS_10FileWriterERjRKNS_13CoordDataFileE@Base 0.1
 _ZN8osmscout19WayWayDataGenerator6ImportERKSt10shared_ptrINS_10TypeConfigEERKNS_15ImportParameterERNS_8ProgressE@Base 0.1
 _ZN8osmscout19WayWayDataGenerator7GetWaysERKNS_15ImportParameterERNS_8ProgressERKNS_10TypeConfigERNS_11TypeInfoSetERNS_11FileScannerERSt6vectorISt4listINS_3RefINS_6RawWayEEESaISH_EESaISJ_EE@Base 0.1
 _ZN8osmscout19WayWayDataGenerator8WriteWayERNS_8ProgressERKNS_10TypeConfigERNS_10FileWriterERjRKSt13unordered_mapIlNS_13CoordDataFile10CoordEntryESt4hashIlESt8equal_toIlESaISt4pairIKlSB_EEERKNS_6RawWayE@Base 0.1
 _ZN8osmscout19WayWayDataGenerator9MergeWaysERNS_8ProgressERSt4listINS_3RefINS_6RawWayEEESaIS6_EERSt8multimapIlNS4_INS_15TurnRestrictionEEESt4lessIlESaISt4pairIKlSC_EEE@Base 0.1
 _ZN8osmscout19WayWayDataGeneratorD0Ev@Base 0.1
 _ZN8osmscout19WayWayDataGeneratorD1Ev@Base 0.1
 _ZN8osmscout19WayWayDataGeneratorD2Ev@Base 0.1
 _ZN8osmscout20NumberToStringSignedIiEESsRKT_@Base 0.1
 _ZN8osmscout20NumberToStringSignedIlEESsRKT_@Base 0.1
 _ZN8osmscout20PreprocessorCallbackD0Ev@Base 0.1
 _ZN8osmscout20PreprocessorCallbackD1Ev@Base 0.1
 _ZN8osmscout20PreprocessorCallbackD2Ev@Base 0.1
 _ZN8osmscout20RawWayIndexGeneratorC1ERKSsS2_@Base 0.1
 _ZN8osmscout20RawWayIndexGeneratorC2ERKSsS2_@Base 0.1
 _ZN8osmscout20RawWayIndexGeneratorD0Ev@Base 0.1
 _ZN8osmscout20RawWayIndexGeneratorD1Ev@Base 0.1
 _ZN8osmscout20RawWayIndexGeneratorD2Ev@Base 0.1
 _ZN8osmscout20RelAreaDataGenerator10BuildRingsERKNS_10TypeConfigERKNS_15ImportParameterERNS_8ProgressEmRKSsRSt4listINS0_16MultipolygonPartESaISC_EE@Base 0.1
 _ZN8osmscout20RelAreaDataGenerator11ConsumeSubsERKSt4listINS0_16MultipolygonPartESaIS2_EERS4_RNS0_13GroupingStateEmm@Base 0.1
 _ZN8osmscout20RelAreaDataGenerator12FindTopLevelERKSt4listINS0_16MultipolygonPartESaIS2_EERKNS0_13GroupingStateERm@Base 0.1
 _ZN8osmscout20RelAreaDataGenerator13GroupingStateD1Ev@Base 0.1
 _ZN8osmscout20RelAreaDataGenerator13GroupingStateD2Ev@Base 0.1
 _ZN8osmscout20RelAreaDataGenerator18ComposeAreaMembersERKNS_10TypeConfigERNS_8ProgressERKSt13unordered_mapIlNS_13CoordDataFile10CoordEntryESt4hashIlESt8equal_toIlESaISt4pairIKlS8_EEERKS6_IlNS_3RefINS_6RawWayEEESA_SC_SaISD_ISE_SM_EEERKSsRKNS_11RawRelationERSt4listINS0_16MultipolygonPartESaISY_EE@Base 0.1
 _ZN8osmscout20RelAreaDataGenerator19ResolveMultipolygonERKNS_10TypeConfigERKNS_15ImportParameterERNS_8ProgressEmRKSsRSt4listINS0_16MultipolygonPartESaISC_EE@Base 0.1
 _ZN8osmscout20RelAreaDataGenerator22ComposeBoundaryMembersERKNS_10TypeConfigERNS_8ProgressERKSt13unordered_mapIlNS_13CoordDataFile10CoordEntryESt4hashIlESt8equal_toIlESaISt4pairIKlS8_EEERKS6_IlNS_3RefINS_6RawWayEEESA_SC_SaISD_ISE_SM_EEERKSt3mapIlNSK_INS_11RawRelationEEESt4lessIlESaISD_ISE_SU_EEERKNS_4AreaERKSsRKST_RSt13unordered_setIlSA_SC_SaIlEERSt4listINS0_16MultipolygonPartESaIS1E_EE@Base 0.1
 _ZN8osmscout20RelAreaDataGenerator26HandleMultipolygonRelationERKNS_15ImportParameterERNS_8ProgressERKNS_10TypeConfigERSt13unordered_setIlSt4hashIlESt8equal_toIlESaIlEERNS_13CoordDataFileERNS_21RawWayIndexedDataFileERNS_26RawRelationIndexedDataFileERNS_11RawRelationERKSsRNS_4AreaE@Base 0.1
 _ZN8osmscout20RelAreaDataGenerator26ResolveMultipolygonMembersERNS_8ProgressERKNS_10TypeConfigERNS_13CoordDataFileERNS_21RawWayIndexedDataFileERNS_26RawRelationIndexedDataFileERSt13unordered_setIlSt4hashIlESt8equal_toIlESaIlEERKNS_4AreaERKSsRKNS_11RawRelationERSt4listINS0_16MultipolygonPartESaIST_EE@Base 0.1
 _ZN8osmscout20RelAreaDataGenerator6ImportERKSt10shared_ptrINS_10TypeConfigEERKNS_15ImportParameterERNS_8ProgressE@Base 0.1
 _ZN8osmscout20RelAreaDataGenerator7FindSubERKSt4listINS0_16MultipolygonPartESaIS2_EEmRKNS0_13GroupingStateERm@Base 0.1
 _ZN8osmscout20RelAreaDataGeneratorD0Ev@Base 0.1
 _ZN8osmscout20RelAreaDataGeneratorD1Ev@Base 0.1
 _ZN8osmscout20RelAreaDataGeneratorD2Ev@Base 0.1
 _ZN8osmscout20SortWayDataGenerator20GetTopLeftCoordinateERKNS_3WayERdS4_@Base 0.1
 _ZN8osmscout20SortWayDataGeneratorC1Ev@Base 0.1
 _ZN8osmscout20SortWayDataGeneratorC2Ev@Base 0.1
 _ZN8osmscout20SortWayDataGeneratorD0Ev@Base 0.1
 _ZN8osmscout20SortWayDataGeneratorD1Ev@Base 0.1
 _ZN8osmscout20SortWayDataGeneratorD2Ev@Base 0.1
 _ZN8osmscout20StringToNumberSignedIlEEbRKSsRT_m@Base 0.1
 _ZN8osmscout20WayAreaDataGenerator12DistributionC1Ev@Base 0.1
 _ZN8osmscout20WayAreaDataGenerator12DistributionC2Ev@Base 0.1
 _ZN8osmscout20WayAreaDataGenerator23HandleLowMemoryFallbackERKNS_15ImportParameterERNS_8ProgressERKNS_10TypeConfigERNS_11FileScannerERKNS_11TypeInfoSetERKSt13unordered_setIlSt4hashIlESt8equal_toIlESaIlEERNS_10FileWriterERjRKNS_13CoordDataFileE@Base 0.1
 _ZN8osmscout20WayAreaDataGenerator6ImportERKSt10shared_ptrINS_10TypeConfigEERKNS_15ImportParameterERNS_8ProgressE@Base 0.1
 _ZN8osmscout20WayAreaDataGenerator8GetAreasERKNS_15ImportParameterERNS_8ProgressERKNS_10TypeConfigERNS_11TypeInfoSetERKSt13unordered_setIlSt4hashIlESt8equal_toIlESaIlEERNS_11FileScannerERSt6vectorISt4listINS_3RefINS_6RawWayEEESaISQ_EESaISS_EE@Base 0.1
 _ZN8osmscout20WayAreaDataGenerator9WriteAreaERKNS_15ImportParameterERNS_8ProgressERKNS_10TypeConfigERNS_10FileWriterERjRKSt13unordered_mapIlNS_13CoordDataFile10CoordEntryESt4hashIlESt8equal_toIlESaISt4pairIKlSE_EEERKNS_6RawWayE@Base 0.1
 _ZN8osmscout20WayAreaDataGeneratorD0Ev@Base 0.1
 _ZN8osmscout20WayAreaDataGeneratorD1Ev@Base 0.1
 _ZN8osmscout20WayAreaDataGeneratorD2Ev@Base 0.1
 _ZN8osmscout21AreaWayIndexGenerator11WriteBitmapERNS_8ProgressERNS_10FileWriterERKNS_8TypeInfoERKNS0_8TypeDataERKSt3mapINS_5PixelESt4listImSaImEESt4lessISC_ESaISt4pairIKSC_SF_EEE@Base 0.1
 _ZN8osmscout21AreaWayIndexGenerator6ImportERKSt10shared_ptrINS_10TypeConfigEERKNS_15ImportParameterERNS_8ProgressE@Base 0.1
 _ZN8osmscout21AreaWayIndexGenerator8TypeDataC1Ev@Base 0.1
 _ZN8osmscout21AreaWayIndexGenerator8TypeDataC2Ev@Base 0.1
 _ZN8osmscout21AreaWayIndexGeneratorD0Ev@Base 0.1
 _ZN8osmscout21AreaWayIndexGeneratorD1Ev@Base 0.1
 _ZN8osmscout21AreaWayIndexGeneratorD2Ev@Base 0.1
 _ZN8osmscout21NumericIndexGeneratorIlNS_11RawRelationEE6ImportERKSt10shared_ptrINS_10TypeConfigEERKNS_15ImportParameterERNS_8ProgressE@Base 0.1
 _ZN8osmscout21NumericIndexGeneratorIlNS_11RawRelationEED0Ev@Base 0.1
 _ZN8osmscout21NumericIndexGeneratorIlNS_11RawRelationEED1Ev@Base 0.1
 _ZN8osmscout21NumericIndexGeneratorIlNS_11RawRelationEED2Ev@Base 0.1
 _ZN8osmscout21NumericIndexGeneratorIlNS_6RawWayEE6ImportERKSt10shared_ptrINS_10TypeConfigEERKNS_15ImportParameterERNS_8ProgressE@Base 0.1
 _ZN8osmscout21NumericIndexGeneratorIlNS_6RawWayEED0Ev@Base 0.1
 _ZN8osmscout21NumericIndexGeneratorIlNS_6RawWayEED1Ev@Base 0.1
 _ZN8osmscout21NumericIndexGeneratorIlNS_6RawWayEED2Ev@Base 0.1
 _ZN8osmscout21NumericIndexGeneratorIlNS_7RawNodeEE6ImportERKSt10shared_ptrINS_10TypeConfigEERKNS_15ImportParameterERNS_8ProgressE@Base 0.1
 _ZN8osmscout21NumericIndexGeneratorIlNS_7RawNodeEED0Ev@Base 0.1
 _ZN8osmscout21NumericIndexGeneratorIlNS_7RawNodeEED1Ev@Base 0.1
 _ZN8osmscout21NumericIndexGeneratorIlNS_7RawNodeEED2Ev@Base 0.1
 _ZN8osmscout21NumericIndexGeneratorImNS_12IntersectionEE6ImportERKSt10shared_ptrINS_10TypeConfigEERKNS_15ImportParameterERNS_8ProgressE@Base 0.1
 _ZN8osmscout21NumericIndexGeneratorImNS_12IntersectionEED0Ev@Base 0.1
 _ZN8osmscout21NumericIndexGeneratorImNS_12IntersectionEED1Ev@Base 0.1
 _ZN8osmscout21NumericIndexGeneratorImNS_12IntersectionEED2Ev@Base 0.1
 _ZN8osmscout21NumericIndexGeneratorImNS_9RouteNodeEE6ImportERKSt10shared_ptrINS_10TypeConfigEERKNS_15ImportParameterERNS_8ProgressE@Base 0.1
 _ZN8osmscout21NumericIndexGeneratorImNS_9RouteNodeEEC1ERKSsS4_S4_@Base 0.1
 _ZN8osmscout21NumericIndexGeneratorImNS_9RouteNodeEEC2ERKSsS4_S4_@Base 0.1
 _ZN8osmscout21NumericIndexGeneratorImNS_9RouteNodeEED0Ev@Base 0.1
 _ZN8osmscout21NumericIndexGeneratorImNS_9RouteNodeEED1Ev@Base 0.1
 _ZN8osmscout21NumericIndexGeneratorImNS_9RouteNodeEED2Ev@Base 0.1
 _ZN8osmscout21RawNodeIndexGeneratorC1ERKSsS2_@Base 0.1
 _ZN8osmscout21RawNodeIndexGeneratorC2ERKSsS2_@Base 0.1
 _ZN8osmscout21RawNodeIndexGeneratorD0Ev@Base 0.1
 _ZN8osmscout21RawNodeIndexGeneratorD1Ev@Base 0.1
 _ZN8osmscout21RawNodeIndexGeneratorD2Ev@Base 0.1
 _ZN8osmscout21RawWayIndexedDataFileC1Emm@Base 0.1
 _ZN8osmscout21RawWayIndexedDataFileC2Emm@Base 0.1
 _ZN8osmscout21RawWayIndexedDataFileD0Ev@Base 0.1
 _ZN8osmscout21RawWayIndexedDataFileD1Ev@Base 0.1
 _ZN8osmscout21RawWayIndexedDataFileD2Ev@Base 0.1
 _ZN8osmscout21SortAreaDataGenerator20GetTopLeftCoordinateERKNS_4AreaERdS4_@Base 0.1
 _ZN8osmscout21SortAreaDataGeneratorC1Ev@Base 0.1
 _ZN8osmscout21SortAreaDataGeneratorC2Ev@Base 0.1
 _ZN8osmscout21SortAreaDataGeneratorD0Ev@Base 0.1
 _ZN8osmscout21SortAreaDataGeneratorD1Ev@Base 0.1
 _ZN8osmscout21SortAreaDataGeneratorD2Ev@Base 0.1
 _ZN8osmscout21SortNodeDataGenerator20GetTopLeftCoordinateERKNS_4NodeERdS4_@Base 0.1
 _ZN8osmscout21SortNodeDataGeneratorC1Ev@Base 0.1
 _ZN8osmscout21SortNodeDataGeneratorC2Ev@Base 0.1
 _ZN8osmscout21SortNodeDataGeneratorD0Ev@Base 0.1
 _ZN8osmscout21SortNodeDataGeneratorD1Ev@Base 0.1
 _ZN8osmscout21SortNodeDataGeneratorD2Ev@Base 0.1
 _ZN8osmscout22AreaAreaIndexGenerator15WriteIndexLevelERKSt10shared_ptrINS_10TypeConfigEERKNS_15ImportParameterERNS_10FileWriterEmRSt3mapINS_5PixelENS0_8AreaLeafESt4lessISC_ESaISt4pairIKSC_SD_EEE@Base 0.1
 _ZN8osmscout22AreaAreaIndexGenerator19SetOffsetOfChildrenERKSt3mapINS_5PixelENS0_8AreaLeafESt4lessIS2_ESaISt4pairIKS2_S3_EEERSA_@Base 0.1
 _ZN8osmscout22AreaAreaIndexGenerator6ImportERKSt10shared_ptrINS_10TypeConfigEERKNS_15ImportParameterERNS_8ProgressE@Base 0.1
 _ZN8osmscout22AreaAreaIndexGeneratorD0Ev@Base 0.1
 _ZN8osmscout22AreaAreaIndexGeneratorD1Ev@Base 0.1
 _ZN8osmscout22AreaAreaIndexGeneratorD2Ev@Base 0.1
 _ZN8osmscout22AreaNodeIndexGenerator6ImportERKSt10shared_ptrINS_10TypeConfigEERKNS_15ImportParameterERNS_8ProgressE@Base 0.1
 _ZN8osmscout22AreaNodeIndexGenerator8TypeDataC1Ev@Base 0.1
 _ZN8osmscout22AreaNodeIndexGenerator8TypeDataC2Ev@Base 0.1
 _ZN8osmscout22AreaNodeIndexGeneratorD0Ev@Base 0.1
 _ZN8osmscout22AreaNodeIndexGeneratorD1Ev@Base 0.1
 _ZN8osmscout22AreaNodeIndexGeneratorD2Ev@Base 0.1
 _ZN8osmscout22LocationIndexGenerator10DumpRegionERKNS0_6RegionEmRSo@Base 0.1
 _ZN8osmscout22LocationIndexGenerator12IndexRegionsERKSt6vectorISt4listINS_3RefINS0_6RegionEEESaIS5_EESaIS7_EERNS0_11RegionIndexE@Base 0.1
 _ZN8osmscout22LocationIndexGenerator12SortInRegionERNS_3RefINS0_6RegionEEERSt6vectorISt4listIS3_SaIS3_EESaIS8_EEm@Base 0.1
 _ZN8osmscout22LocationIndexGenerator15WriteRegionDataERNS_10FileWriterERNS0_6RegionE@Base 0.1
 _ZN8osmscout22LocationIndexGenerator16AddAliasToRegionERNS0_6RegionERKNS0_11RegionAliasERKNS_8GeoCoordE@Base 0.1
 _ZN8osmscout22LocationIndexGenerator16DumpLocationTreeERNS_8ProgressERKNS0_6RegionERKSs@Base 0.1
 _ZN8osmscout22LocationIndexGenerator16GetBoundaryAreasERKNS_15ImportParameterERNS_8ProgressERKSt10shared_ptrINS_10TypeConfigEERKS6_INS_8TypeInfoEERSt4listINS0_8BoundaryESaISG_EE@Base 0.1
 _ZN8osmscout22LocationIndexGenerator16IndexAddressWaysERKNS_10TypeConfigERKNS_15ImportParameterERNS_8ProgressERNS_3RefINS0_6RegionEEERKNS0_11RegionIndexE@Base 0.1
 _ZN8osmscout22LocationIndexGenerator16IndexRegionAreasERKNS_10TypeConfigERKNS_15ImportParameterERNS_8ProgressERNS0_6RegionE@Base 0.1
 _ZN8osmscout22LocationIndexGenerator16IndexRegionNodesERKSt10shared_ptrINS_10TypeConfigEERKNS_15ImportParameterERNS_8ProgressERNS_3RefINS0_6RegionEEERKNS0_11RegionIndexE@Base 0.1
 _ZN8osmscout22LocationIndexGenerator16SortInBoundariesERNS_8ProgressERNS0_6RegionERKSt4listINS0_8BoundaryESaIS6_EEm@Base 0.1
 _ZN8osmscout22LocationIndexGenerator16WriteAddressDataERNS_10FileWriterERNS0_6RegionE@Base 0.1
 _ZN8osmscout22LocationIndexGenerator16WriteRegionIndexERNS_10FileWriterERNS0_6RegionE@Base 0.1
 _ZN8osmscout22LocationIndexGenerator17AddPOIWayToRegionERNS_8ProgressERNS0_6RegionERKmRKSsRKSt6vectorINS_8GeoCoordESaISA_EEddddRb@Base 0.1
 _ZN8osmscout22LocationIndexGenerator17IndexAddressAreasERKNS_10TypeConfigERKNS_15ImportParameterERNS_8ProgressERNS_3RefINS0_6RegionEEERKNS0_11RegionIndexE@Base 0.1
 _ZN8osmscout22LocationIndexGenerator17IndexAddressNodesERKNS_10TypeConfigERKNS_15ImportParameterERNS_8ProgressERNS_3RefINS0_6RegionEEERKNS0_11RegionIndexE@Base 0.1
 _ZN8osmscout22LocationIndexGenerator17IndexLocationWaysERKSt10shared_ptrINS_10TypeConfigEERKNS_15ImportParameterERNS_8ProgressERNS_3RefINS0_6RegionEEERKNS0_11RegionIndexE@Base 0.1
 _ZN8osmscout22LocationIndexGenerator17WriteIgnoreTokensERNS_10FileWriterERKSt4listISsSaISsEES7_@Base 0.1
 _ZN8osmscout22LocationIndexGenerator18AddPOIAreaToRegionERNS_8ProgressERNS0_6RegionERKmRKSsRKSt6vectorINS_8GeoCoordESaISA_EEddddRb@Base 0.1
 _ZN8osmscout22LocationIndexGenerator18AddPOINodeToRegionERNS0_6RegionERKmRKSsRb@Base 0.1
 _ZN8osmscout22LocationIndexGenerator18GetRegionTreeDepthERKNS0_6RegionE@Base 0.1
 _ZN8osmscout22LocationIndexGenerator18IndexLocationAreasERKNS_10TypeConfigERKNS_15ImportParameterERNS_8ProgressERNS_3RefINS0_6RegionEEERKNS0_11RegionIndexE@Base 0.1
 _ZN8osmscout22LocationIndexGenerator20WriteRegionDataEntryERNS_10FileWriterERNS0_6RegionE@Base 0.1
 _ZN8osmscout22LocationIndexGenerator21AddAddressWayToRegionERNS_8ProgressERNS0_6RegionERKmRKSsS8_RKSt6vectorINS_8GeoCoordESaISA_EEddddRb@Base 0.1
 _ZN8osmscout22LocationIndexGenerator21CalculateIgnoreTokensERKNS0_6RegionERSt4listISsSaISsEES7_@Base 0.1
 _ZN8osmscout22LocationIndexGenerator21WriteAddressDataEntryERNS_10FileWriterERNS0_6RegionE@Base 0.1
 _ZN8osmscout22LocationIndexGenerator21WriteRegionIndexEntryERNS_10FileWriterERKNS0_6RegionERS3_@Base 0.1
 _ZN8osmscout22LocationIndexGenerator22AddAddressAreaToRegionERNS_8ProgressERNS0_6RegionERKmRKSsS8_RKSt6vectorINS_8GeoCoordESaISA_EEddddRb@Base 0.1
 _ZN8osmscout22LocationIndexGenerator22AddAddressNodeToRegionERNS_8ProgressERNS0_6RegionERKmRKSsS8_Rb@Base 0.1
 _ZN8osmscout22LocationIndexGenerator22AddLocationWayToRegionERNS0_6RegionERKNS_3WayERKSsdddd@Base 0.1
 _ZN8osmscout22LocationIndexGenerator23AddLocationAreaToRegionERNS0_6RegionERKNS_4AreaERKSt6vectorINS_8GeoCoordESaIS7_EERKSsdddd@Base 0.1
 _ZN8osmscout22LocationIndexGenerator23AddLocationAreaToRegionERNS_3RefINS0_6RegionEEERKNS_4AreaERKNS5_4RingERKSsRKNS0_11RegionIndexE@Base 0.1
 _ZN8osmscout22LocationIndexGenerator28AnalyseStringForIgnoreTokensERKSsRSt13unordered_mapISsmSt4hashISsESt8equal_toISsESaISt4pairIS1_mEEERSt13unordered_setISsS5_S7_SaISsEE@Base 0.1
 _ZN8osmscout22LocationIndexGenerator31CalculateRegionNameIgnoreTokensERKNS0_6RegionERSt13unordered_mapISsmSt4hashISsESt8equal_toISsESaISt4pairIKSsmEEERSt13unordered_setISsS6_S8_SaISsEE@Base 0.1
 _ZN8osmscout22LocationIndexGenerator33CalculateLocationNameIgnoreTokensERKNS0_6RegionERSt13unordered_mapISsmSt4hashISsESt8equal_toISsESaISt4pairIKSsmEEERSt13unordered_setISsS6_S8_SaISsEE@Base 0.1
 _ZN8osmscout22LocationIndexGenerator5WriteERNS_10FileWriterERKNS_13ObjectFileRefE@Base 0.1
 _ZN8osmscout22LocationIndexGenerator6ImportERKSt10shared_ptrINS_10TypeConfigEERKNS_15ImportParameterERNS_8ProgressE@Base 0.1
 _ZN8osmscout22LocationIndexGenerator8BoundaryD1Ev@Base 0.1
 _ZN8osmscout22LocationIndexGenerator8BoundaryD2Ev@Base 0.1
 _ZN8osmscout22LocationIndexGenerator9AddRegionERNS0_6RegionERKNS_3RefIS1_EE@Base 0.1
 _ZN8osmscout22LocationIndexGeneratorD0Ev@Base 0.1
 _ZN8osmscout22LocationIndexGeneratorD1Ev@Base 0.1
 _ZN8osmscout22LocationIndexGeneratorD2Ev@Base 0.1
 _ZN8osmscout22MergeAreaDataGenerator10MergeAreasERKNS_15ImportParameterERNS_8ProgressERKNS_10TypeConfigE@Base 0.1
 _ZN8osmscout22MergeAreaDataGenerator6ImportERKSt10shared_ptrINS_10TypeConfigEERKNS_15ImportParameterERNS_8ProgressE@Base 0.1
 _ZN8osmscout22MergeAreaDataGeneratorD0Ev@Base 0.1
 _ZN8osmscout22MergeAreaDataGeneratorD1Ev@Base 0.1
 _ZN8osmscout22MergeAreaDataGeneratorD2Ev@Base 0.1
 _ZN8osmscout22NumberToStringUnsignedIhEESsRKT_@Base 0.1
 _ZN8osmscout25IsAreaAtLeastPartlyInAreaINS_8GeoCoordES1_EEbRKSt6vectorIT_SaIS3_EERKS2_IT0_SaIS8_EE@Base 0.1
 _ZN8osmscout25RawRelationIndexGeneratorC1ERKSsS2_@Base 0.1
 _ZN8osmscout25RawRelationIndexGeneratorC2ERKSsS2_@Base 0.1
 _ZN8osmscout25RawRelationIndexGeneratorD0Ev@Base 0.1
 _ZN8osmscout25RawRelationIndexGeneratorD1Ev@Base 0.1
 _ZN8osmscout25RawRelationIndexGeneratorD2Ev@Base 0.1
 _ZN8osmscout26RawRelationIndexedDataFileC1Emm@Base 0.1
 _ZN8osmscout26RawRelationIndexedDataFileC2Emm@Base 0.1
 _ZN8osmscout26RawRelationIndexedDataFileD0Ev@Base 0.1
 _ZN8osmscout26RawRelationIndexedDataFileD1Ev@Base 0.1
 _ZN8osmscout26RawRelationIndexedDataFileD2Ev@Base 0.1
 _ZN8osmscout26WayLocationProcessorFilter18AfterProcessingEndERKNS_15ImportParameterERNS_8ProgressERKNS_10TypeConfigE@Base 0.1
 _ZN8osmscout26WayLocationProcessorFilter21BeforeProcessingStartERKNS_15ImportParameterERNS_8ProgressERKNS_10TypeConfigE@Base 0.1
 _ZN8osmscout26WayLocationProcessorFilter7ProcessERNS_8ProgressERKmRNS_3WayERb@Base 0.1
 _ZN8osmscout26WayLocationProcessorFilterD0Ev@Base 0.1
 _ZN8osmscout26WayLocationProcessorFilterD1Ev@Base 0.1
 _ZN8osmscout26WayLocationProcessorFilterD2Ev@Base 0.1
 _ZN8osmscout27AreaLocationProcessorFilter18AfterProcessingEndERKNS_15ImportParameterERNS_8ProgressERKNS_10TypeConfigE@Base 0.1
 _ZN8osmscout27AreaLocationProcessorFilter21BeforeProcessingStartERKNS_15ImportParameterERNS_8ProgressERKNS_10TypeConfigE@Base 0.1
 _ZN8osmscout27AreaLocationProcessorFilter7ProcessERNS_8ProgressERKmRNS_4AreaERb@Base 0.1
 _ZN8osmscout27AreaLocationProcessorFilterD0Ev@Base 0.1
 _ZN8osmscout27AreaLocationProcessorFilterD1Ev@Base 0.1
 _ZN8osmscout27AreaLocationProcessorFilterD2Ev@Base 0.1
 _ZN8osmscout27NodeLocationProcessorFilter18AfterProcessingEndERKNS_15ImportParameterERNS_8ProgressERKNS_10TypeConfigE@Base 0.1
 _ZN8osmscout27NodeLocationProcessorFilter21BeforeProcessingStartERKNS_15ImportParameterERNS_8ProgressERKNS_10TypeConfigE@Base 0.1
 _ZN8osmscout27NodeLocationProcessorFilter7ProcessERNS_8ProgressERKmRNS_4NodeERb@Base 0.1
 _ZN8osmscout27NodeLocationProcessorFilterD0Ev@Base 0.1
 _ZN8osmscout27NodeLocationProcessorFilterD1Ev@Base 0.1
 _ZN8osmscout27NodeLocationProcessorFilterD2Ev@Base 0.1
 _ZN8osmscout27OptimizeAreaWayIdsGenerator10ScanWayIdsERKNS_15ImportParameterERNS_8ProgressERKNS_10TypeConfigERNS_10NodeUseMapE@Base 0.1
 _ZN8osmscout27OptimizeAreaWayIdsGenerator11ScanAreaIdsERKNS_15ImportParameterERNS_8ProgressERKNS_10TypeConfigERNS_10NodeUseMapE@Base 0.1
 _ZN8osmscout27OptimizeAreaWayIdsGenerator6ImportERKSt10shared_ptrINS_10TypeConfigEERKNS_15ImportParameterERNS_8ProgressE@Base 0.1
 _ZN8osmscout27OptimizeAreaWayIdsGenerator8CopyWaysERKNS_15ImportParameterERNS_8ProgressERKNS_10TypeConfigERNS_10NodeUseMapE@Base 0.1
 _ZN8osmscout27OptimizeAreaWayIdsGenerator9CopyAreasERKNS_15ImportParameterERNS_8ProgressERKNS_10TypeConfigERNS_10NodeUseMapE@Base 0.1
 _ZN8osmscout27OptimizeAreaWayIdsGeneratorD0Ev@Base 0.1
 _ZN8osmscout27OptimizeAreaWayIdsGeneratorD1Ev@Base 0.1
 _ZN8osmscout27OptimizeAreaWayIdsGeneratorD2Ev@Base 0.1
 _ZN8osmscout28OptimizeWaysLowZoomGenerator10HandleWaysERKNS_15ImportParameterERNS_8ProgressERKNS_10TypeConfigERNS_10FileWriterERKSt3setISt10shared_ptrINS_8TypeInfoEESt4lessISE_ESaISE_EERSt4listINS0_8TypeDataESaISM_EE@Base 0.1
 _ZN8osmscout28OptimizeWaysLowZoomGenerator11WriteHeaderERNS_10FileWriterERKSt4listINS0_8TypeDataESaIS4_EEj@Base 0.1
 _ZN8osmscout28OptimizeWaysLowZoomGenerator12OptimizeWaysERKSt4listINS_3RefINS_3WayEEESaIS4_EERS6_mmddRKNS_13MagnificationENS_12TransPolygon14OptimizeMethodE@Base 0.1
 _ZN8osmscout28OptimizeWaysLowZoomGenerator13WriteTypeDataERNS_10FileWriterERKNS0_8TypeDataE@Base 0.1
 _ZN8osmscout28OptimizeWaysLowZoomGenerator14WriteWayBitmapERNS_8ProgressERNS_10FileWriterERKSt4listINS_3RefINS_3WayEEESaIS8_EERKSt13unordered_mapImmSt4hashImESt8equal_toImESaISt4pairIKmmEEERNS0_8TypeDataE@Base 0.1
 _ZN8osmscout28OptimizeWaysLowZoomGenerator16FILE_WAYSOPT_DATE@Base 0.1
 _ZN8osmscout28OptimizeWaysLowZoomGenerator16GetWayIndexLevelERKNS_15ImportParameterERKSt4listINS_3RefINS_3WayEEESaIS7_EERNS0_8TypeDataE@Base 0.1
 _ZN8osmscout28OptimizeWaysLowZoomGenerator21GetWayTypesToOptimizeERKNS_10TypeConfigERSt3setISt10shared_ptrINS_8TypeInfoEESt4lessIS7_ESaIS7_EE@Base 0.1
 _ZN8osmscout28OptimizeWaysLowZoomGenerator6ImportERKSt10shared_ptrINS_10TypeConfigEERKNS_15ImportParameterERNS_8ProgressE@Base 0.1
 _ZN8osmscout28OptimizeWaysLowZoomGenerator7GetWaysERKNS_10TypeConfigERKNS_15ImportParameterERNS_8ProgressERNS_11FileScannerERSt3setISt10shared_ptrINS_8TypeInfoEESt4lessISE_ESaISE_EERSt6vectorISt4listINS_3RefINS_3WayEEESaISO_EESaISQ_EE@Base 0.1
 _ZN8osmscout28OptimizeWaysLowZoomGenerator8TypeDataC1Ev@Base 0.1
 _ZN8osmscout28OptimizeWaysLowZoomGenerator8TypeDataC2Ev@Base 0.1
 _ZN8osmscout28OptimizeWaysLowZoomGenerator9MergeWaysERNS_8ProgressERKSt4listINS_3RefINS_3WayEEESaIS6_EERS8_@Base 0.1
 _ZN8osmscout28OptimizeWaysLowZoomGenerator9WriteWaysERKNS_10TypeConfigERNS_10FileWriterERKSt4listINS_3RefINS_3WayEEESaIS9_EERSt13unordered_mapImmSt4hashImESt8equal_toImESaISt4pairIKmmEEE@Base 0.1
 _ZN8osmscout28OptimizeWaysLowZoomGeneratorD0Ev@Base 0.1
 _ZN8osmscout28OptimizeWaysLowZoomGeneratorD1Ev@Base 0.1
 _ZN8osmscout28OptimizeWaysLowZoomGeneratorD2Ev@Base 0.1
 _ZN8osmscout29OptimizeAreasLowZoomGenerator10WriteAreasERKNS_10TypeConfigERNS_10FileWriterERKSt4listINS_3RefINS_4AreaEEESaIS9_EERSt13unordered_mapImmSt4hashImESt8equal_toImESaISt4pairIKmmEEE@Base 0.1
 _ZN8osmscout29OptimizeAreasLowZoomGenerator11HandleAreasERKNS_15ImportParameterERNS_8ProgressERKNS_10TypeConfigERNS_10FileWriterERKSt3setISt10shared_ptrINS_8TypeInfoEESt4lessISE_ESaISE_EERSt4listINS0_8TypeDataESaISM_EE@Base 0.1
 _ZN8osmscout29OptimizeAreasLowZoomGenerator11WriteHeaderERNS_10FileWriterERKSt4listINS0_8TypeDataESaIS4_EEj@Base 0.1
 _ZN8osmscout29OptimizeAreasLowZoomGenerator13OptimizeAreasERKSt4listINS_3RefINS_4AreaEEESaIS4_EERS6_mmddRKNS_13MagnificationENS_12TransPolygon14OptimizeMethodE@Base 0.1
 _ZN8osmscout29OptimizeAreasLowZoomGenerator13WriteTypeDataERNS_10FileWriterERKNS0_8TypeDataE@Base 0.1
 _ZN8osmscout29OptimizeAreasLowZoomGenerator15WriteAreaBitmapERNS_8ProgressERNS_10FileWriterERKSt4listINS_3RefINS_4AreaEEESaIS8_EERKSt13unordered_mapImmSt4hashImESt8equal_toImESaISt4pairIKmmEEERNS0_8TypeDataE@Base 0.1
 _ZN8osmscout29OptimizeAreasLowZoomGenerator17FILE_AREASOPT_DATE@Base 0.1
 _ZN8osmscout29OptimizeAreasLowZoomGenerator17GetAreaIndexLevelERKNS_15ImportParameterERKSt4listINS_3RefINS_4AreaEEESaIS7_EERNS0_8TypeDataE@Base 0.1
 _ZN8osmscout29OptimizeAreasLowZoomGenerator22GetAreaTypesToOptimizeERKNS_10TypeConfigERSt3setISt10shared_ptrINS_8TypeInfoEESt4lessIS7_ESaIS7_EE@Base 0.1
 _ZN8osmscout29OptimizeAreasLowZoomGenerator6ImportERKSt10shared_ptrINS_10TypeConfigEERKNS_15ImportParameterERNS_8ProgressE@Base 0.1
 _ZN8osmscout29OptimizeAreasLowZoomGenerator8GetAreasERKNS_10TypeConfigERKNS_15ImportParameterERNS_8ProgressERNS_11FileScannerERSt3setISt10shared_ptrINS_8TypeInfoEESt4lessISE_ESaISE_EERSt6vectorISt4listINS_3RefINS_4AreaEEESaISO_EESaISQ_EE@Base 0.1
 _ZN8osmscout29OptimizeAreasLowZoomGenerator8TypeDataC1Ev@Base 0.1
 _ZN8osmscout29OptimizeAreasLowZoomGenerator8TypeDataC2Ev@Base 0.1
 _ZN8osmscout29OptimizeAreasLowZoomGeneratorD0Ev@Base 0.1
 _ZN8osmscout29OptimizeAreasLowZoomGeneratorD1Ev@Base 0.1
 _ZN8osmscout29OptimizeAreasLowZoomGeneratorD2Ev@Base 0.1
 _ZN8osmscout31WayNodeReductionProcessorFilter18AfterProcessingEndERKNS_15ImportParameterERNS_8ProgressERKNS_10TypeConfigE@Base 0.1
 _ZN8osmscout31WayNodeReductionProcessorFilter20RemoveDuplicateNodesERNS_8ProgressERKmRNS_3WayERb@Base 0.1
 _ZN8osmscout31WayNodeReductionProcessorFilter20RemoveRedundantNodesERNS_8ProgressERKmRNS_3WayERb@Base 0.1
 _ZN8osmscout31WayNodeReductionProcessorFilter21BeforeProcessingStartERKNS_15ImportParameterERNS_8ProgressERKNS_10TypeConfigE@Base 0.1
 _ZN8osmscout31WayNodeReductionProcessorFilter7IsEqualEPKhS2_@Base 0.1
 _ZN8osmscout31WayNodeReductionProcessorFilter7ProcessERNS_8ProgressERKmRNS_3WayERb@Base 0.1
 _ZN8osmscout31WayNodeReductionProcessorFilterD0Ev@Base 0.1
 _ZN8osmscout31WayNodeReductionProcessorFilterD1Ev@Base 0.1
 _ZN8osmscout31WayNodeReductionProcessorFilterD2Ev@Base 0.1
 _ZN8osmscout32AreaNodeReductionProcessorFilter18AfterProcessingEndERKNS_15ImportParameterERNS_8ProgressERKNS_10TypeConfigE@Base 0.1
 _ZN8osmscout32AreaNodeReductionProcessorFilter20RemoveDuplicateNodesERNS_8ProgressERKmRNS_4AreaERb@Base 0.1
 _ZN8osmscout32AreaNodeReductionProcessorFilter20RemoveRedundantNodesERNS_8ProgressERKmRNS_4AreaERb@Base 0.1
 _ZN8osmscout32AreaNodeReductionProcessorFilter21BeforeProcessingStartERKNS_15ImportParameterERNS_8ProgressERKNS_10TypeConfigE@Base 0.1
 _ZN8osmscout32AreaNodeReductionProcessorFilter7IsEqualEPKhS2_@Base 0.1
 _ZN8osmscout32AreaNodeReductionProcessorFilter7ProcessERNS_8ProgressERKmRNS_4AreaERb@Base 0.1
 _ZN8osmscout32AreaNodeReductionProcessorFilterD0Ev@Base 0.1
 _ZN8osmscout32AreaNodeReductionProcessorFilterD1Ev@Base 0.1
 _ZN8osmscout32AreaNodeReductionProcessorFilterD2Ev@Base 0.1
 _ZN8osmscout3RefINS_11RawRelationEED1Ev@Base 0.1
 _ZN8osmscout3RefINS_11RawRelationEED2Ev@Base 0.1
 _ZN8osmscout3RefINS_12NumericIndexIlE4PageEED1Ev@Base 0.1
 _ZN8osmscout3RefINS_12NumericIndexIlE4PageEED2Ev@Base 0.1
 _ZN8osmscout3RefINS_12RawCoastlineEED1Ev@Base 0.1
 _ZN8osmscout3RefINS_12RawCoastlineEED2Ev@Base 0.1
 _ZN8osmscout3RefINS_15TurnRestrictionEED1Ev@Base 0.1
 _ZN8osmscout3RefINS_15TurnRestrictionEED2Ev@Base 0.1
 _ZN8osmscout3RefINS_17SortDataGeneratorINS_3WayEE16ProcessingFilterEED1Ev@Base 0.1
 _ZN8osmscout3RefINS_17SortDataGeneratorINS_3WayEE16ProcessingFilterEED2Ev@Base 0.1
 _ZN8osmscout3RefINS_17SortDataGeneratorINS_4AreaEE16ProcessingFilterEED1Ev@Base 0.1
 _ZN8osmscout3RefINS_17SortDataGeneratorINS_4AreaEE16ProcessingFilterEED2Ev@Base 0.1
 _ZN8osmscout3RefINS_19WaterIndexGenerator5CoastEED1Ev@Base 0.1
 _ZN8osmscout3RefINS_19WaterIndexGenerator5CoastEED2Ev@Base 0.1
 _ZN8osmscout3RefINS_22LocationIndexGenerator6RegionEED1Ev@Base 0.1
 _ZN8osmscout3RefINS_22LocationIndexGenerator6RegionEED2Ev@Base 0.1
 _ZN8osmscout3RefINS_3WayEED1Ev@Base 0.1
 _ZN8osmscout3RefINS_3WayEED2Ev@Base 0.1
 _ZN8osmscout3RefINS_4AreaEED1Ev@Base 0.1
 _ZN8osmscout3RefINS_4AreaEED2Ev@Base 0.1
 _ZN8osmscout3RefINS_6RawWayEED1Ev@Base 0.1
 _ZN8osmscout3RefINS_6RawWayEED2Ev@Base 0.1
 _ZN8osmscout3RefINS_7FeatureEED1Ev@Base 0.1
 _ZN8osmscout3RefINS_7FeatureEED2Ev@Base 0.1
 _ZN8osmscout3RefINS_9RouteNodeEED1Ev@Base 0.1
 _ZN8osmscout3RefINS_9RouteNodeEED2Ev@Base 0.1
 _ZN8osmscout3WayD1Ev@Base 0.1
 _ZN8osmscout3WayD2Ev@Base 0.1
 _ZN8osmscout4Area4RingC1ERKS1_@Base 0.1
 _ZN8osmscout4Area4RingC2ERKS1_@Base 0.1
 _ZN8osmscout4Area4RingD1Ev@Base 0.1
 _ZN8osmscout4Area4RingD2Ev@Base 0.1
 _ZN8osmscout5CacheIlNS_3RefINS_12NumericIndexIlE4PageEEEmED1Ev@Base 0.1
 _ZN8osmscout5CacheIlNS_3RefINS_12NumericIndexIlE4PageEEEmED2Ev@Base 0.1
 _ZN8osmscout5CacheImNS_3RefINS_11RawRelationEEEmED1Ev@Base 0.1
 _ZN8osmscout5CacheImNS_3RefINS_11RawRelationEEEmED2Ev@Base 0.1
 _ZN8osmscout5CacheImNS_3RefINS_6RawWayEEEmED1Ev@Base 0.1
 _ZN8osmscout5CacheImNS_3RefINS_6RawWayEEEmED2Ev@Base 0.1
 _ZN8osmscout6ImportERKNS_15ImportParameterERNS_8ProgressE@Base 0.1
 _ZN8osmscout6Parser12StartElementEPKhPS2_@Base 0.1
 _ZN8osmscout6ParserD1Ev@Base 0.1
 _ZN8osmscout6ParserD2Ev@Base 0.1
 _ZN8osmscout6RawWay4ReadERKNS_10TypeConfigERNS_11FileScannerE@Base 0.1
 _ZN8osmscout6RawWay5ParseERNS_8ProgressERKNS_10TypeConfigERKSt13unordered_mapItSsSt4hashItESt8equal_toItESaISt4pairIKtSsEEE@Base 0.1
 _ZN8osmscout6RawWay5SetIdEl@Base 0.1
 _ZN8osmscout6RawWay7SetTypeERKSt10shared_ptrINS_8TypeInfoEEb@Base 0.1
 _ZN8osmscout6RawWay8SetNodesERKSt6vectorIlSaIlEE@Base 0.1
 _ZN8osmscout7RawNode12UnsetFeatureEm@Base 0.1
 _ZN8osmscout7RawNode4ReadERKNS_10TypeConfigERNS_11FileScannerE@Base 0.1
 _ZN8osmscout7RawNode5ParseERNS_8ProgressERKNS_10TypeConfigERKSt13unordered_mapItSsSt4hashItESt8equal_toItESaISt4pairIKtSsEEE@Base 0.1
 _ZN8osmscout7RawNode5SetIdEl@Base 0.1
 _ZN8osmscout7RawNode7SetTypeERKSt10shared_ptrINS_8TypeInfoEE@Base 0.1
 _ZN8osmscout7RawNode9SetCoordsEdd@Base 0.1
 _ZN8osmscout7RawNodeC1Ev@Base 0.1
 _ZN8osmscout7RawNodeC2Ev@Base 0.1
 _ZN8osmscout7RawNodeD0Ev@Base 0.1
 _ZN8osmscout7RawNodeD1Ev@Base 0.1
 _ZN8osmscout7RawNodeD2Ev@Base 0.1
 _ZN8osmscout8DataFileINS_11RawRelationEEC1ERKSsm@Base 0.1
 _ZN8osmscout8DataFileINS_11RawRelationEEC2ERKSsm@Base 0.1
 _ZN8osmscout8DataFileINS_11RawRelationEED0Ev@Base 0.1
 _ZN8osmscout8DataFileINS_11RawRelationEED1Ev@Base 0.1
 _ZN8osmscout8DataFileINS_11RawRelationEED2Ev@Base 0.1
 _ZN8osmscout8DataFileINS_6RawWayEE5CloseEv@Base 0.1
 _ZN8osmscout8DataFileINS_6RawWayEEC1ERKSsm@Base 0.1
 _ZN8osmscout8DataFileINS_6RawWayEEC2ERKSsm@Base 0.1
 _ZN8osmscout8DataFileINS_6RawWayEED0Ev@Base 0.1
 _ZN8osmscout8DataFileINS_6RawWayEED1Ev@Base 0.1
 _ZN8osmscout8DataFileINS_6RawWayEED2Ev@Base 0.1
 _ZN8osmscout9RouteNodeD1Ev@Base 0.1
 _ZN8osmscout9RouteNodeD2Ev@Base 0.1
 _ZNK3PBF10DenseNodes11GetMetadataEv@Base 0.1
 _ZNK3PBF10DenseNodes13GetCachedSizeEv@Base 0.1
 _ZNK3PBF10DenseNodes13IsInitializedEv@Base 0.1
 _ZNK3PBF10DenseNodes13SetCachedSizeEi@Base 0.1
 _ZNK3PBF10DenseNodes24SerializeWithCachedSizesEPN6google8protobuf2io17CodedOutputStreamE@Base 0.1
 _ZNK3PBF10DenseNodes31SerializeWithCachedSizesToArrayEPh@Base 0.1
 _ZNK3PBF10DenseNodes3NewEv@Base 0.1
 _ZNK3PBF10DenseNodes8ByteSizeEv@Base 0.1
 _ZNK3PBF10HeaderBBox11GetMetadataEv@Base 0.1
 _ZNK3PBF10HeaderBBox13GetCachedSizeEv@Base 0.1
 _ZNK3PBF10HeaderBBox13IsInitializedEv@Base 0.1
 _ZNK3PBF10HeaderBBox13SetCachedSizeEi@Base 0.1
 _ZNK3PBF10HeaderBBox24SerializeWithCachedSizesEPN6google8protobuf2io17CodedOutputStreamE@Base 0.1
 _ZNK3PBF10HeaderBBox31SerializeWithCachedSizesToArrayEPh@Base 0.1
 _ZNK3PBF10HeaderBBox3NewEv@Base 0.1
 _ZNK3PBF10HeaderBBox8ByteSizeEv@Base 0.1
 _ZNK3PBF11BlockHeader11GetMetadataEv@Base 0.1
 _ZNK3PBF11BlockHeader13GetCachedSizeEv@Base 0.1
 _ZNK3PBF11BlockHeader13IsInitializedEv@Base 0.1
 _ZNK3PBF11BlockHeader13SetCachedSizeEi@Base 0.1
 _ZNK3PBF11BlockHeader24SerializeWithCachedSizesEPN6google8protobuf2io17CodedOutputStreamE@Base 0.1
 _ZNK3PBF11BlockHeader31SerializeWithCachedSizesToArrayEPh@Base 0.1
 _ZNK3PBF11BlockHeader3NewEv@Base 0.1
 _ZNK3PBF11BlockHeader8ByteSizeEv@Base 0.1
 _ZNK3PBF11HeaderBlock11GetMetadataEv@Base 0.1
 _ZNK3PBF11HeaderBlock13GetCachedSizeEv@Base 0.1
 _ZNK3PBF11HeaderBlock13IsInitializedEv@Base 0.1
 _ZNK3PBF11HeaderBlock13SetCachedSizeEi@Base 0.1
 _ZNK3PBF11HeaderBlock24SerializeWithCachedSizesEPN6google8protobuf2io17CodedOutputStreamE@Base 0.1
 _ZNK3PBF11HeaderBlock31SerializeWithCachedSizesToArrayEPh@Base 0.1
 _ZNK3PBF11HeaderBlock3NewEv@Base 0.1
 _ZNK3PBF11HeaderBlock8ByteSizeEv@Base 0.1
 _ZNK3PBF11StringTable11GetMetadataEv@Base 0.1
 _ZNK3PBF11StringTable13GetCachedSizeEv@Base 0.1
 _ZNK3PBF11StringTable13IsInitializedEv@Base 0.1
 _ZNK3PBF11StringTable13SetCachedSizeEi@Base 0.1
 _ZNK3PBF11StringTable24SerializeWithCachedSizesEPN6google8protobuf2io17CodedOutputStreamE@Base 0.1
 _ZNK3PBF11StringTable31SerializeWithCachedSizesToArrayEPh@Base 0.1
 _ZNK3PBF11StringTable3NewEv@Base 0.1
 _ZNK3PBF11StringTable8ByteSizeEv@Base 0.1
 _ZNK3PBF14PrimitiveBlock11GetMetadataEv@Base 0.1
 _ZNK3PBF14PrimitiveBlock13GetCachedSizeEv@Base 0.1
 _ZNK3PBF14PrimitiveBlock13IsInitializedEv@Base 0.1
 _ZNK3PBF14PrimitiveBlock13SetCachedSizeEi@Base 0.1
 _ZNK3PBF14PrimitiveBlock24SerializeWithCachedSizesEPN6google8protobuf2io17CodedOutputStreamE@Base 0.1
 _ZNK3PBF14PrimitiveBlock31SerializeWithCachedSizesToArrayEPh@Base 0.1
 _ZNK3PBF14PrimitiveBlock3NewEv@Base 0.1
 _ZNK3PBF14PrimitiveBlock8ByteSizeEv@Base 0.1
 _ZNK3PBF14PrimitiveGroup11GetMetadataEv@Base 0.1
 _ZNK3PBF14PrimitiveGroup13GetCachedSizeEv@Base 0.1
 _ZNK3PBF14PrimitiveGroup13IsInitializedEv@Base 0.1
 _ZNK3PBF14PrimitiveGroup13SetCachedSizeEi@Base 0.1
 _ZNK3PBF14PrimitiveGroup24SerializeWithCachedSizesEPN6google8protobuf2io17CodedOutputStreamE@Base 0.1
 _ZNK3PBF14PrimitiveGroup31SerializeWithCachedSizesToArrayEPh@Base 0.1
 _ZNK3PBF14PrimitiveGroup3NewEv@Base 0.1
 _ZNK3PBF14PrimitiveGroup8ByteSizeEv@Base 0.1
 _ZNK3PBF3Way11GetMetadataEv@Base 0.1
 _ZNK3PBF3Way13GetCachedSizeEv@Base 0.1
 _ZNK3PBF3Way13IsInitializedEv@Base 0.1
 _ZNK3PBF3Way13SetCachedSizeEi@Base 0.1
 _ZNK3PBF3Way24SerializeWithCachedSizesEPN6google8protobuf2io17CodedOutputStreamE@Base 0.1
 _ZNK3PBF3Way31SerializeWithCachedSizesToArrayEPh@Base 0.1
 _ZNK3PBF3Way3NewEv@Base 0.1
 _ZNK3PBF3Way8ByteSizeEv@Base 0.1
 _ZNK3PBF4Blob11GetMetadataEv@Base 0.1
 _ZNK3PBF4Blob13GetCachedSizeEv@Base 0.1
 _ZNK3PBF4Blob13IsInitializedEv@Base 0.1
 _ZNK3PBF4Blob13SetCachedSizeEi@Base 0.1
 _ZNK3PBF4Blob24SerializeWithCachedSizesEPN6google8protobuf2io17CodedOutputStreamE@Base 0.1
 _ZNK3PBF4Blob31SerializeWithCachedSizesToArrayEPh@Base 0.1
 _ZNK3PBF4Blob3NewEv@Base 0.1
 _ZNK3PBF4Blob8ByteSizeEv@Base 0.1
 _ZNK3PBF4Info11GetMetadataEv@Base 0.1
 _ZNK3PBF4Info13GetCachedSizeEv@Base 0.1
 _ZNK3PBF4Info13IsInitializedEv@Base 0.1
 _ZNK3PBF4Info13SetCachedSizeEi@Base 0.1
 _ZNK3PBF4Info24SerializeWithCachedSizesEPN6google8protobuf2io17CodedOutputStreamE@Base 0.1
 _ZNK3PBF4Info31SerializeWithCachedSizesToArrayEPh@Base 0.1
 _ZNK3PBF4Info3NewEv@Base 0.1
 _ZNK3PBF4Info8ByteSizeEv@Base 0.1
 _ZNK3PBF4Node11GetMetadataEv@Base 0.1
 _ZNK3PBF4Node13GetCachedSizeEv@Base 0.1
 _ZNK3PBF4Node13IsInitializedEv@Base 0.1
 _ZNK3PBF4Node13SetCachedSizeEi@Base 0.1
 _ZNK3PBF4Node24SerializeWithCachedSizesEPN6google8protobuf2io17CodedOutputStreamE@Base 0.1
 _ZNK3PBF4Node31SerializeWithCachedSizesToArrayEPh@Base 0.1
 _ZNK3PBF4Node3NewEv@Base 0.1
 _ZNK3PBF4Node8ByteSizeEv@Base 0.1
 _ZNK3PBF8Relation11GetMetadataEv@Base 0.1
 _ZNK3PBF8Relation13GetCachedSizeEv@Base 0.1
 _ZNK3PBF8Relation13IsInitializedEv@Base 0.1
 _ZNK3PBF8Relation13SetCachedSizeEi@Base 0.1
 _ZNK3PBF8Relation24SerializeWithCachedSizesEPN6google8protobuf2io17CodedOutputStreamE@Base 0.1
 _ZNK3PBF8Relation31SerializeWithCachedSizesToArrayEPh@Base 0.1
 _ZNK3PBF8Relation3NewEv@Base 0.1
 _ZNK3PBF8Relation8ByteSizeEv@Base 0.1
 _ZNK3PBF9ChangeSet11GetMetadataEv@Base 0.1
 _ZNK3PBF9ChangeSet13GetCachedSizeEv@Base 0.1
 _ZNK3PBF9ChangeSet13IsInitializedEv@Base 0.1
 _ZNK3PBF9ChangeSet13SetCachedSizeEi@Base 0.1
 _ZNK3PBF9ChangeSet24SerializeWithCachedSizesEPN6google8protobuf2io17CodedOutputStreamE@Base 0.1
 _ZNK3PBF9ChangeSet31SerializeWithCachedSizesToArrayEPh@Base 0.1
 _ZNK3PBF9ChangeSet3NewEv@Base 0.1
 _ZNK3PBF9ChangeSet8ByteSizeEv@Base 0.1
 _ZNK3PBF9DenseInfo11GetMetadataEv@Base 0.1
 _ZNK3PBF9DenseInfo13GetCachedSizeEv@Base 0.1
 _ZNK3PBF9DenseInfo13IsInitializedEv@Base 0.1
 _ZNK3PBF9DenseInfo13SetCachedSizeEi@Base 0.1
 _ZNK3PBF9DenseInfo24SerializeWithCachedSizesEPN6google8protobuf2io17CodedOutputStreamE@Base 0.1
 _ZNK3PBF9DenseInfo31SerializeWithCachedSizesToArrayEPh@Base 0.1
 _ZNK3PBF9DenseInfo3NewEv@Base 0.1
 _ZNK3PBF9DenseInfo8ByteSizeEv@Base 0.1
 _ZNK6google8protobuf7Message13GetReflectionEv@Base 0.1
 _ZNK6google8protobuf8internal20RepeatedPtrFieldBase3GetINS0_16RepeatedPtrFieldISsE11TypeHandlerEEERKNT_4TypeEi@Base 0.1
 _ZNK8osmscout10Preprocess14GetDescriptionEv@Base 0.1
 _ZNK8osmscout10Preprocess8Callback17IsTurnRestrictionERKSt13unordered_mapItSsSt4hashItESt8equal_toItESaISt4pairIKtSsEEERNS_15TurnRestriction4TypeE@Base 0.1
 _ZNK8osmscout11RawRelation5WriteERKNS_10TypeConfigERNS_10FileWriterE@Base 0.1
 _ZNK8osmscout12NumericIndexIlE10GetOffsetsERKSt3setIlSt4lessIlESaIlEERSt6vectorImSaImEE@Base 0.1
 _ZNK8osmscout12NumericIndexIlE8ReadPageEmRNS_3RefINS1_4PageEEE@Base 0.1
 _ZNK8osmscout12NumericIndexIlE9GetOffsetERKlRm@Base 0.1
 _ZNK8osmscout12RawCoastline5WriteERNS_10FileWriterE@Base 0.1
 _ZNK8osmscout15ImportParameter10GetEndStepEv@Base 0.1
 _ZNK8osmscout15ImportParameter11GetMapfilesEv@Base 0.1
 _ZNK8osmscout15ImportParameter11GetTypefileEv@Base 0.1
 _ZNK8osmscout15ImportParameter12GetStartStepEv@Base 0.1
 _ZNK8osmscout15ImportParameter13GetAssumeLandEv@Base 0.1
 _ZNK8osmscout15ImportParameter14GetSortObjectsEv@Base 0.1
 _ZNK8osmscout15ImportParameter14GetSortTileMagEv@Base 0.1
 _ZNK8osmscout15ImportParameter14GetStrictAreasEv@Base 0.1
 _ZNK8osmscout15ImportParameter16GetAreaWayMinMagEv@Base 0.1
 _ZNK8osmscout15ImportParameter16GetSortBlockSizeEv@Base 0.1
 _ZNK8osmscout15ImportParameter17GetAreaNodeMinMagEv@Base 0.1
 _ZNK8osmscout15ImportParameter18GetRawWayBlockSizeEv@Base 0.1
 _ZNK8osmscout15ImportParameter19GetWaterIndexMaxMagEv@Base 0.1
 _ZNK8osmscout15ImportParameter19GetWaterIndexMinMagEv@Base 0.1
 _ZNK8osmscout15ImportParameter19GetWayDataCacheSizeEv@Base 0.1
 _ZNK8osmscout15ImportParameter20GetAreaDataCacheSizeEv@Base 0.1
 _ZNK8osmscout15ImportParameter21GetOptimizationMaxMagEv@Base 0.1
 _ZNK8osmscout15ImportParameter21GetOptimizationMinMagEv@Base 0.1
 _ZNK8osmscout15ImportParameter21GetRouteNodeBlockSizeEv@Base 0.1
 _ZNK8osmscout15ImportParameter21GetWayDataMemoryMapedEv@Base 0.1
 _ZNK8osmscout15ImportParameter22GetAreaAreaIndexMaxMagEv@Base 0.1
 _ZNK8osmscout15ImportParameter22GetAreaDataMemoryMapedEv@Base 0.1
 _ZNK8osmscout15ImportParameter22GetRawWayDataCacheSizeEv@Base 0.1
 _ZNK8osmscout15ImportParameter23GetCoordDataMemoryMapedEv@Base 0.1
 _ZNK8osmscout15ImportParameter23GetDestinationDirectoryEv@Base 0.1
 _ZNK8osmscout15ImportParameter23GetNumericIndexPageSizeEv@Base 0.1
 _ZNK8osmscout15ImportParameter23GetRawNodeDataCacheSizeEv@Base 0.1
 _ZNK8osmscout15ImportParameter23GetRawWayIndexCacheSizeEv@Base 0.1
 _ZNK8osmscout15ImportParameter24GetOptimizationWayMethodEv@Base 0.1
 _ZNK8osmscout15ImportParameter24GetRawWayDataMemoryMapedEv@Base 0.1
 _ZNK8osmscout15ImportParameter25GetRawNodeDataMemoryMapedEv@Base 0.1
 _ZNK8osmscout15ImportParameter25GetRawWayIndexMemoryMapedEv@Base 0.1
 _ZNK8osmscout15ImportParameter26GetOptimizationCellSizeMaxEv@Base 0.1
 _ZNK8osmscout15ImportParameter26GetOptimizationMaxWayCountEv@Base 0.1
 _ZNK8osmscout15ImportParameter27GetAreaNodeIndexCellSizeMaxEv@Base 0.1
 _ZNK8osmscout15ImportParameter27GetAreaNodeIndexMinFillRateEv@Base 0.1
 _ZNK8osmscout15ImportParameter30GetOptimizationCellSizeAverageEv@Base 0.1
 _ZNK8osmscout15ImportParameter31GetAreaNodeIndexCellSizeAverageEv@Base 0.1
 _ZNK8osmscout17NodeDataGenerator14GetDescriptionEv@Base 0.1
 _ZNK8osmscout17TypeDataGenerator14GetDescriptionEv@Base 0.1
 _ZNK8osmscout18FeatureValueReaderINS_11NameFeatureENS_16NameFeatureValueEE8GetValueERKNS_18FeatureValueBufferE@Base 0.1
 _ZNK8osmscout18FeatureValueReaderINS_15MaxSpeedFeatureENS_20MaxSpeedFeatureValueEE8GetValueERKNS_18FeatureValueBufferE@Base 0.1
 _ZNK8osmscout18RouteDataGenerator11GetMaxSpeedERKNS_3WayE@Base 0.1
 _ZNK8osmscout18RouteDataGenerator13IsAnyRoutableERNS_8ProgressERKSt4listINS_13ObjectFileRefESaIS4_EERKSt13unordered_mapImNS_3RefINS_3WayEEESt4hashImESt8equal_toImESaISt4pairIKmSC_EEERKS9_ImNSA_INS_4AreaEEESE_SG_SaISH_ISI_SP_EEENS_7VehicleE@Base 0.1
 _ZNK8osmscout18RouteDataGenerator14GetDescriptionEv@Base 0.1
 _ZNK8osmscout18RouteDataGenerator16CopyFlagsForwardERKNS_3WayE@Base 0.1
 _ZNK8osmscout18RouteDataGenerator17CopyFlagsBackwardERKNS_3WayE@Base 0.1
 _ZNK8osmscout18RouteDataGenerator17GetRouteNodeCoordERNS_8ProgressEmRKSt4listINS_13ObjectFileRefESaIS4_EERSt13unordered_mapImNS_3RefINS_3WayEEESt4hashImESt8equal_toImESaISt4pairIKmSC_EEERS9_ImNSA_INS_4AreaEEESE_SG_SaISH_ISI_SO_EEERNS_8GeoCoordE@Base 0.1
 _ZNK8osmscout18RouteDataGenerator18IsAccessRestrictedERKNS_18FeatureValueBufferE@Base 0.1
 _ZNK8osmscout18RouteDataGenerator7CanTurnERKSt6vectorINS0_19TurnRestrictionDataESaIS2_EEmm@Base 0.1
 _ZNK8osmscout18RouteDataGenerator8GetGradeERKNS_3WayE@Base 0.1
 _ZNK8osmscout18RouteDataGenerator9CopyFlagsERKNS_4Area4RingE@Base 0.1
 _ZNK8osmscout18RouteDataGenerator9GetAccessERKNS_18FeatureValueBufferE@Base 0.1
 _ZNK8osmscout19MergeAreasGenerator14GetDescriptionEv@Base 0.1
 _ZNK8osmscout19MergeAreasGenerator23GetFirstOuterRingWithIdERKNS_4AreaEm@Base 0.1
 _ZNK8osmscout19WaterIndexGenerator14GetDescriptionEv@Base 0.1
 _ZNK8osmscout19WaterIndexGenerator5Level12IsInAbsoluteEjj@Base 0.1
 _ZNK8osmscout19WaterIndexGenerator5Level8GetStateEjj@Base 0.1
 _ZNK8osmscout19WaterIndexGenerator9GetNextCWERKSt4listIPNS0_12IntersectionESaIS3_EERKS3_@Base 0.1
 _ZNK8osmscout19WayWayDataGenerator12IsRestrictedERKSt8multimapIlNS_3RefINS_15TurnRestrictionEEESt4lessIlESaISt4pairIKlS4_EEEll@Base 0.1
 _ZNK8osmscout19WayWayDataGenerator14GetDescriptionEv@Base 0.1
 _ZNK8osmscout19WayWayDataGenerator20ReadTypeDistributionERKSt10shared_ptrINS_10TypeConfigEERKNS_15ImportParameterERNS_8ProgressERSt6vectorINS0_12DistributionESaISC_EE@Base 0.1
 _ZNK8osmscout20RelAreaDataGenerator14GetDescriptionEv@Base 0.1
 _ZNK8osmscout20RelAreaDataGenerator19ResolveRelationNameERKNS_3RefINS_7FeatureEEERKNS_11RawRelationE@Base 0.1
 _ZNK8osmscout20SortWayDataGenerator14GetDescriptionEv@Base 0.1
 _ZNK8osmscout20WayAreaDataGenerator14GetDescriptionEv@Base 0.1
 _ZNK8osmscout20WayAreaDataGenerator16ReadWayBlacklistERKNS_15ImportParameterERNS_8ProgressERSt13unordered_setIlSt4hashIlESt8equal_toIlESaIlEE@Base 0.1
 _ZNK8osmscout20WayAreaDataGenerator20ReadTypeDistributionERKSt10shared_ptrINS_10TypeConfigEERKNS_15ImportParameterERNS_8ProgressERSt6vectorINS0_12DistributionESaISC_EE@Base 0.1
 _ZNK8osmscout21AreaWayIndexGenerator14GetDescriptionEv@Base 0.1
 _ZNK8osmscout21AreaWayIndexGenerator17FitsIndexCriteriaERKNS_15ImportParameterERNS_8ProgressERKNS_8TypeInfoERKNS0_8TypeDataERKSt3mapINS_5PixelEmSt4lessISD_ESaISt4pairIKSD_mEEE@Base 0.1
 _ZNK8osmscout21AreaWayIndexGenerator19CalculateStatisticsEmRNS0_8TypeDataERKSt3mapINS_5PixelEmSt4lessIS4_ESaISt4pairIKS4_mEEE@Base 0.1
 _ZNK8osmscout21AreaWayIndexGenerator21CalculateDistributionERKSt10shared_ptrINS_10TypeConfigEERKNS_15ImportParameterERNS_8ProgressERSt6vectorINS0_8TypeDataESaISC_EERm@Base 0.1
 _ZNK8osmscout21NumericIndexGeneratorIlNS_11RawRelationEE14GetDescriptionEv@Base 0.1
 _ZNK8osmscout21NumericIndexGeneratorIlNS_6RawWayEE14GetDescriptionEv@Base 0.1
 _ZNK8osmscout21NumericIndexGeneratorIlNS_7RawNodeEE14GetDescriptionEv@Base 0.1
 _ZNK8osmscout21NumericIndexGeneratorImNS_12IntersectionEE14GetDescriptionEv@Base 0.1
 _ZNK8osmscout21NumericIndexGeneratorImNS_9RouteNodeEE14GetDescriptionEv@Base 0.1
 _ZNK8osmscout21SortAreaDataGenerator14GetDescriptionEv@Base 0.1
 _ZNK8osmscout21SortNodeDataGenerator14GetDescriptionEv@Base 0.1
 _ZNK8osmscout22AreaAreaIndexGenerator14GetDescriptionEv@Base 0.1
 _ZNK8osmscout22AreaNodeIndexGenerator14GetDescriptionEv@Base 0.1
 _ZNK8osmscout22LocationIndexGenerator11RegionIndex16GetRegionForNodeERNS_3RefINS0_6RegionEEERKNS_8GeoCoordE@Base 0.1
 _ZNK8osmscout22LocationIndexGenerator14GetDescriptionEv@Base 0.1
 _ZNK8osmscout22MergeAreaDataGenerator14GetDescriptionEv@Base 0.1
 _ZNK8osmscout27OptimizeAreaWayIdsGenerator14GetDescriptionEv@Base 0.1
 _ZNK8osmscout28OptimizeWaysLowZoomGenerator14GetDescriptionEv@Base 0.1
 _ZNK8osmscout29OptimizeAreasLowZoomGenerator14GetDescriptionEv@Base 0.1
 _ZNK8osmscout6RawWay5WriteERKNS_10TypeConfigERNS_10FileWriterE@Base 0.1
 _ZNK8osmscout6RawWay8IsOnewayEv@Base 0.1
 _ZNK8osmscout7RawNode5WriteERKNS_10TypeConfigERNS_10FileWriterE@Base 0.1
 _ZNK8osmscout8DataFileINS_11RawRelationEE11GetByOffsetERKSt6vectorImSaImEERS3_INS_3RefIS1_EESaIS9_EE@Base 0.1
 _ZNK8osmscout8DataFileINS_6RawWayEE11GetByOffsetERKSt6vectorImSaImEERS3_INS_3RefIS1_EESaIS9_EE@Base 0.1
 _ZNKSt10_HashtableISsSsSaISsENSt8__detail9_IdentityESt8equal_toISsESt4hashISsENS1_18_Mod_range_hashingENS1_20_Default_ranged_hashENS1_20_Prime_rehash_policyENS1_17_Hashtable_traitsILb1ELb1ELb1EEEE19_M_find_before_nodeEmRKSsm@Base 0.1
 _ZNKSt10_HashtableISsSt4pairIKSsmESaIS2_ENSt8__detail10_Select1stESt8equal_toISsESt4hashISsENS4_18_Mod_range_hashingENS4_20_Default_ranged_hashENS4_20_Prime_rehash_policyENS4_17_Hashtable_traitsILb1ELb0ELb1EEEE19_M_find_before_nodeEmRS1_m@Base 0.1
 _ZNKSt10_HashtableIlSt4pairIKlN8osmscout13CoordDataFile10CoordEntryEESaIS5_ENSt8__detail10_Select1stESt8equal_toIlESt4hashIlENS7_18_Mod_range_hashingENS7_20_Default_ranged_hashENS7_20_Prime_rehash_policyENS7_17_Hashtable_traitsILb0ELb0ELb1EEEE4findERS1_@Base 0.1
 _ZNKSt10_HashtableIlSt4pairIKlN8osmscout3RefINS2_6RawWayEEEESaIS6_ENSt8__detail10_Select1stESt8equal_toIlESt4hashIlENS8_18_Mod_range_hashingENS8_20_Default_ranged_hashENS8_20_Prime_rehash_policyENS8_17_Hashtable_traitsILb0ELb0ELb1EEEE4findERS1_@Base 0.1
 _ZNKSt10_HashtableIllSaIlENSt8__detail9_IdentityESt8equal_toIlESt4hashIlENS1_18_Mod_range_hashingENS1_20_Default_ranged_hashENS1_20_Prime_rehash_policyENS1_17_Hashtable_traitsILb0ELb1ELb1EEEE4findERKl@Base 0.1
 _ZNKSt10_HashtableImSt4pairIKmmESaIS2_ENSt8__detail10_Select1stESt8equal_toImESt4hashImENS4_18_Mod_range_hashingENS4_20_Default_ranged_hashENS4_20_Prime_rehash_policyENS4_17_Hashtable_traitsILb0ELb0ELb1EEEE4findERS1_@Base 0.1
 _ZNKSt10_HashtableItSt4pairIKtSsESaIS2_ENSt8__detail10_Select1stESt8equal_toItESt4hashItENS4_18_Mod_range_hashingENS4_20_Default_ranged_hashENS4_20_Prime_rehash_policyENS4_17_Hashtable_traitsILb0ELb0ELb1EEEE4findERS1_@Base 0.1
 _ZNKSt8_Rb_treeIlSt4pairIKlmESt10_Select1stIS2_ESt4lessIlESaIS2_EE4findERS1_@Base 0.1
 _ZNKSt8_Rb_treeImSt4pairIKmSt4listIN8osmscout13ObjectFileRefESaIS4_EEESt10_Select1stIS7_ESt4lessImESaIS7_EE4findERS1_@Base 0.1
 _ZNSt10_HashtableISsSsSaISsENSt8__detail9_IdentityESt8equal_toISsESt4hashISsENS1_18_Mod_range_hashingENS1_20_Default_ranged_hashENS1_20_Prime_rehash_policyENS1_17_Hashtable_traitsILb1ELb1ELb1EEEE21_M_insert_unique_nodeEmmPNS1_10_Hash_nodeISsLb1EEE@Base 0.1
 _ZNSt10_HashtableISsSsSaISsENSt8__detail9_IdentityESt8equal_toISsESt4hashISsENS1_18_Mod_range_hashingENS1_20_Default_ranged_hashENS1_20_Prime_rehash_policyENS1_17_Hashtable_traitsILb1ELb1ELb1EEEE4findERKSs@Base 0.1
 _ZNSt10_HashtableISsSsSaISsENSt8__detail9_IdentityESt8equal_toISsESt4hashISsENS1_18_Mod_range_hashingENS1_20_Default_ranged_hashENS1_20_Prime_rehash_policyENS1_17_Hashtable_traitsILb1ELb1ELb1EEEE5clearEv@Base 0.1
 _ZNSt10_HashtableISsSsSaISsENSt8__detail9_IdentityESt8equal_toISsESt4hashISsENS1_18_Mod_range_hashingENS1_20_Default_ranged_hashENS1_20_Prime_rehash_policyENS1_17_Hashtable_traitsILb1ELb1ELb1EEEE9_M_insertIRKSsEESt4pairINS1_14_Node_iteratorISsLb1ELb1EEEbEOT_St17integral_constantIbLb1EE@Base 0.1
 _ZNSt10_HashtableISsSt4pairIKSsmESaIS2_ENSt8__detail10_Select1stESt8equal_toISsESt4hashISsENS4_18_Mod_range_hashingENS4_20_Default_ranged_hashENS4_20_Prime_rehash_policyENS4_17_Hashtable_traitsILb1ELb0ELb1EEEE10_M_emplaceIIS0_ISsiEEEES0_INS4_14_Node_iteratorIS2_Lb0ELb1EEEbESt17integral_constantIbLb1EEDpOT_@Base 0.1
 _ZNSt10_HashtableISsSt4pairIKSsmESaIS2_ENSt8__detail10_Select1stESt8equal_toISsESt4hashISsENS4_18_Mod_range_hashingENS4_20_Default_ranged_hashENS4_20_Prime_rehash_policyENS4_17_Hashtable_traitsILb1ELb0ELb1EEEE10_M_emplaceIJS0_ISsiEEEES0_INS4_14_Node_iteratorIS2_Lb0ELb1EEEbESt17integral_constantIbLb1EEDpOT_@Base 0.1
 _ZNSt10_HashtableISsSt4pairIKSsmESaIS2_ENSt8__detail10_Select1stESt8equal_toISsESt4hashISsENS4_18_Mod_range_hashingENS4_20_Default_ranged_hashENS4_20_Prime_rehash_policyENS4_17_Hashtable_traitsILb1ELb0ELb1EEEE21_M_insert_unique_nodeEmmPNS4_10_Hash_nodeIS2_Lb1EEE@Base 0.1
 _ZNSt10_HashtableISsSt4pairIKSsmESaIS2_ENSt8__detail10_Select1stESt8equal_toISsESt4hashISsENS4_18_Mod_range_hashingENS4_20_Default_ranged_hashENS4_20_Prime_rehash_policyENS4_17_Hashtable_traitsILb1ELb0ELb1EEEE4findERS1_@Base 0.1
 _ZNSt10_HashtableISsSt4pairIKSsmESaIS2_ENSt8__detail10_Select1stESt8equal_toISsESt4hashISsENS4_18_Mod_range_hashingENS4_20_Default_ranged_hashENS4_20_Prime_rehash_policyENS4_17_Hashtable_traitsILb1ELb0ELb1EEEE5clearEv@Base 0.1
 _ZNSt10_HashtableIlSt4pairIKlN8osmscout13CoordDataFile10CoordEntryEESaIS5_ENSt8__detail10_Select1stESt8equal_toIlESt4hashIlENS7_18_Mod_range_hashingENS7_20_Default_ranged_hashENS7_20_Prime_rehash_policyENS7_17_Hashtable_traitsILb0ELb0ELb1EEEE5clearEv@Base 0.1
 _ZNSt10_HashtableIlSt4pairIKlN8osmscout3RefINS2_6RawWayEEEESaIS6_ENSt8__detail10_Select1stESt8equal_toIlESt4hashIlENS8_18_Mod_range_hashingENS8_20_Default_ranged_hashENS8_20_Prime_rehash_policyENS8_17_Hashtable_traitsILb0ELb0ELb1EEEE21_M_insert_unique_nodeEmmPNS8_10_Hash_nodeIS6_Lb0EEE@Base 0.1
 _ZNSt10_HashtableIlSt4pairIKlN8osmscout3RefINS2_6RawWayEEEESaIS6_ENSt8__detail10_Select1stESt8equal_toIlESt4hashIlENS8_18_Mod_range_hashingENS8_20_Default_ranged_hashENS8_20_Prime_rehash_policyENS8_17_Hashtable_traitsILb0ELb0ELb1EEEE5clearEv@Base 0.1
 _ZNSt10_HashtableIlSt4pairIKlN8osmscout3RefINS2_6RawWayEEEESaIS6_ENSt8__detail10_Select1stESt8equal_toIlESt4hashIlENS8_18_Mod_range_hashingENS8_20_Default_ranged_hashENS8_20_Prime_rehash_policyENS8_17_Hashtable_traitsILb0ELb0ELb1EEEE9_M_rehashEmRKm@Base 0.1
 _ZNSt10_HashtableIlSt4pairIKlSt14_List_iteratorIN8osmscout5CacheIlNS3_3RefINS3_12NumericIndexIlE4PageEEEmE10CacheEntryEEESaISD_ENSt8__detail10_Select1stESt8equal_toIlESt4hashIlENSF_18_Mod_range_hashingENSF_20_Default_ranged_hashENSF_20_Prime_rehash_policyENSF_17_Hashtable_traitsILb0ELb0ELb1EEEE16_M_allocate_nodeIIRKSD_EEEPNSF_10_Hash_nodeISD_Lb0EEEDpOT_@Base 0.1
 _ZNSt10_HashtableIlSt4pairIKlSt14_List_iteratorIN8osmscout5CacheIlNS3_3RefINS3_12NumericIndexIlE4PageEEEmE10CacheEntryEEESaISD_ENSt8__detail10_Select1stESt8equal_toIlESt4hashIlENSF_18_Mod_range_hashingENSF_20_Default_ranged_hashENSF_20_Prime_rehash_policyENSF_17_Hashtable_traitsILb0ELb0ELb1EEEE16_M_allocate_nodeIJRKSD_EEEPNSF_10_Hash_nodeISD_Lb0EEEDpOT_@Base 0.1
 _ZNSt10_HashtableIlSt4pairIKlSt14_List_iteratorIN8osmscout5CacheIlNS3_3RefINS3_12NumericIndexIlE4PageEEEmE10CacheEntryEEESaISD_ENSt8__detail10_Select1stESt8equal_toIlESt4hashIlENSF_18_Mod_range_hashingENSF_20_Default_ranged_hashENSF_20_Prime_rehash_policyENSF_17_Hashtable_traitsILb0ELb0ELb1EEEE21_M_insert_unique_nodeEmmPNSF_10_Hash_nodeISD_Lb0EEE@Base 0.1
 _ZNSt10_HashtableIlSt4pairIKlSt14_List_iteratorIN8osmscout5CacheIlNS3_3RefINS3_12NumericIndexIlE4PageEEEmE10CacheEntryEEESaISD_ENSt8__detail10_Select1stESt8equal_toIlESt4hashIlENSF_18_Mod_range_hashingENSF_20_Default_ranged_hashENSF_20_Prime_rehash_policyENSF_17_Hashtable_traitsILb0ELb0ELb1EEEE4findERS1_@Base 0.1
 _ZNSt10_HashtableIlSt4pairIKlSt14_List_iteratorIN8osmscout5CacheIlNS3_3RefINS3_12NumericIndexIlE4PageEEEmE10CacheEntryEEESaISD_ENSt8__detail10_Select1stESt8equal_toIlESt4hashIlENSF_18_Mod_range_hashingENSF_20_Default_ranged_hashENSF_20_Prime_rehash_policyENSF_17_Hashtable_traitsILb0ELb0ELb1EEEE5clearEv@Base 0.1
 _ZNSt10_HashtableIlSt4pairIKlSt14_List_iteratorIN8osmscout5CacheIlNS3_3RefINS3_12NumericIndexIlE4PageEEEmE10CacheEntryEEESaISD_ENSt8__detail10_Select1stESt8equal_toIlESt4hashIlENSF_18_Mod_range_hashingENSF_20_Default_ranged_hashENSF_20_Prime_rehash_policyENSF_17_Hashtable_traitsILb0ELb0ELb1EEEE9_M_rehashEmRKm@Base 0.1
 _ZNSt10_HashtableIlSt4pairIKlSt4listISt14_List_iteratorIN8osmscout3RefINS4_6RawWayEEEESaIS8_EEESaISB_ENSt8__detail10_Select1stESt8equal_toIlESt4hashIlENSD_18_Mod_range_hashingENSD_20_Default_ranged_hashENSD_20_Prime_rehash_policyENSD_17_Hashtable_traitsILb0ELb0ELb1EEEE21_M_insert_unique_nodeEmmPNSD_10_Hash_nodeISB_Lb0EEE@Base 0.1
 _ZNSt10_HashtableIlSt4pairIKlSt4listISt14_List_iteratorIN8osmscout3RefINS4_6RawWayEEEESaIS8_EEESaISB_ENSt8__detail10_Select1stESt8equal_toIlESt4hashIlENSD_18_Mod_range_hashingENSD_20_Default_ranged_hashENSD_20_Prime_rehash_policyENSD_17_Hashtable_traitsILb0ELb0ELb1EEEE4findERS1_@Base 0.1
 _ZNSt10_HashtableIlSt4pairIKlSt4listISt14_List_iteratorIN8osmscout3RefINS4_6RawWayEEEESaIS8_EEESaISB_ENSt8__detail10_Select1stESt8equal_toIlESt4hashIlENSD_18_Mod_range_hashingENSD_20_Default_ranged_hashENSD_20_Prime_rehash_policyENSD_17_Hashtable_traitsILb0ELb0ELb1EEEE5clearEv@Base 0.1
 _ZNSt10_HashtableIlSt4pairIKlSt4listISt14_List_iteratorIN8osmscout3RefINS4_6RawWayEEEESaIS8_EEESaISB_ENSt8__detail10_Select1stESt8equal_toIlESt4hashIlENSD_18_Mod_range_hashingENSD_20_Default_ranged_hashENSD_20_Prime_rehash_policyENSD_17_Hashtable_traitsILb0ELb0ELb1EEEE5eraseENSD_20_Node_const_iteratorISB_Lb0ELb0EEE@Base 0.1
 _ZNSt10_HashtableIllSaIlENSt8__detail9_IdentityESt8equal_toIlESt4hashIlENS1_18_Mod_range_hashingENS1_20_Default_ranged_hashENS1_20_Prime_rehash_policyENS1_17_Hashtable_traitsILb0ELb1ELb1EEEE21_M_insert_unique_nodeEmmPNS1_10_Hash_nodeIlLb0EEE@Base 0.1
 _ZNSt10_HashtableIllSaIlENSt8__detail9_IdentityESt8equal_toIlESt4hashIlENS1_18_Mod_range_hashingENS1_20_Default_ranged_hashENS1_20_Prime_rehash_policyENS1_17_Hashtable_traitsILb0ELb1ELb1EEEE4findERKl@Base 0.1
 _ZNSt10_HashtableIllSaIlENSt8__detail9_IdentityESt8equal_toIlESt4hashIlENS1_18_Mod_range_hashingENS1_20_Default_ranged_hashENS1_20_Prime_rehash_policyENS1_17_Hashtable_traitsILb0ELb1ELb1EEEE5clearEv@Base 0.1
 _ZNSt10_HashtableImSt4pairIKmN8osmscout3RefINS2_3WayEEEESaIS6_ENSt8__detail10_Select1stESt8equal_toImESt4hashImENS8_18_Mod_range_hashingENS8_20_Default_ranged_hashENS8_20_Prime_rehash_policyENS8_17_Hashtable_traitsILb0ELb0ELb1EEEE21_M_insert_unique_nodeEmmPNS8_10_Hash_nodeIS6_Lb0EEE@Base 0.1
 _ZNSt10_HashtableImSt4pairIKmN8osmscout3RefINS2_3WayEEEESaIS6_ENSt8__detail10_Select1stESt8equal_toImESt4hashImENS8_18_Mod_range_hashingENS8_20_Default_ranged_hashENS8_20_Prime_rehash_policyENS8_17_Hashtable_traitsILb0ELb0ELb1EEEE5clearEv@Base 0.1
 _ZNSt10_HashtableImSt4pairIKmN8osmscout3RefINS2_3WayEEEESaIS6_ENSt8__detail10_Select1stESt8equal_toImESt4hashImENS8_18_Mod_range_hashingENS8_20_Default_ranged_hashENS8_20_Prime_rehash_policyENS8_17_Hashtable_traitsILb0ELb0ELb1EEEEC1EmRKSD_RKSB_RKS7_@Base 0.1
 _ZNSt10_HashtableImSt4pairIKmN8osmscout3RefINS2_3WayEEEESaIS6_ENSt8__detail10_Select1stESt8equal_toImESt4hashImENS8_18_Mod_range_hashingENS8_20_Default_ranged_hashENS8_20_Prime_rehash_policyENS8_17_Hashtable_traitsILb0ELb0ELb1EEEEC2EmRKSD_RKSB_RKS7_@Base 0.1
 _ZNSt10_HashtableImSt4pairIKmN8osmscout3RefINS2_4AreaEEEESaIS6_ENSt8__detail10_Select1stESt8equal_toImESt4hashImENS8_18_Mod_range_hashingENS8_20_Default_ranged_hashENS8_20_Prime_rehash_policyENS8_17_Hashtable_traitsILb0ELb0ELb1EEEE21_M_insert_unique_nodeEmmPNS8_10_Hash_nodeIS6_Lb0EEE@Base 0.1
 _ZNSt10_HashtableImSt4pairIKmN8osmscout3RefINS2_4AreaEEEESaIS6_ENSt8__detail10_Select1stESt8equal_toImESt4hashImENS8_18_Mod_range_hashingENS8_20_Default_ranged_hashENS8_20_Prime_rehash_policyENS8_17_Hashtable_traitsILb0ELb0ELb1EEEE5clearEv@Base 0.1
 _ZNSt10_HashtableImSt4pairIKmN8osmscout3RefINS2_4AreaEEEESaIS6_ENSt8__detail10_Select1stESt8equal_toImESt4hashImENS8_18_Mod_range_hashingENS8_20_Default_ranged_hashENS8_20_Prime_rehash_policyENS8_17_Hashtable_traitsILb0ELb0ELb1EEEEC1EmRKSD_RKSB_RKS7_@Base 0.1
 _ZNSt10_HashtableImSt4pairIKmN8osmscout3RefINS2_4AreaEEEESaIS6_ENSt8__detail10_Select1stESt8equal_toImESt4hashImENS8_18_Mod_range_hashingENS8_20_Default_ranged_hashENS8_20_Prime_rehash_policyENS8_17_Hashtable_traitsILb0ELb0ELb1EEEEC2EmRKSD_RKSB_RKS7_@Base 0.1
 _ZNSt10_HashtableImSt4pairIKmSt14_List_iteratorIN8osmscout5CacheImNS3_3RefINS3_11RawRelationEEEmE10CacheEntryEEESaISB_ENSt8__detail10_Select1stESt8equal_toImESt4hashImENSD_18_Mod_range_hashingENSD_20_Default_ranged_hashENSD_20_Prime_rehash_policyENSD_17_Hashtable_traitsILb0ELb0ELb1EEEE21_M_insert_unique_nodeEmmPNSD_10_Hash_nodeISB_Lb0EEE@Base 0.1
 _ZNSt10_HashtableImSt4pairIKmSt14_List_iteratorIN8osmscout5CacheImNS3_3RefINS3_11RawRelationEEEmE10CacheEntryEEESaISB_ENSt8__detail10_Select1stESt8equal_toImESt4hashImENSD_18_Mod_range_hashingENSD_20_Default_ranged_hashENSD_20_Prime_rehash_policyENSD_17_Hashtable_traitsILb0ELb0ELb1EEEE4findERS1_@Base 0.1
 _ZNSt10_HashtableImSt4pairIKmSt14_List_iteratorIN8osmscout5CacheImNS3_3RefINS3_11RawRelationEEEmE10CacheEntryEEESaISB_ENSt8__detail10_Select1stESt8equal_toImESt4hashImENSD_18_Mod_range_hashingENSD_20_Default_ranged_hashENSD_20_Prime_rehash_policyENSD_17_Hashtable_traitsILb0ELb0ELb1EEEE5clearEv@Base 0.1
 _ZNSt10_HashtableImSt4pairIKmSt14_List_iteratorIN8osmscout5CacheImNS3_3RefINS3_11RawRelationEEEmE10CacheEntryEEESaISB_ENSt8__detail10_Select1stESt8equal_toImESt4hashImENSD_18_Mod_range_hashingENSD_20_Default_ranged_hashENSD_20_Prime_rehash_policyENSD_17_Hashtable_traitsILb0ELb0ELb1EEEE6rehashEm@Base 0.1
 _ZNSt10_HashtableImSt4pairIKmSt14_List_iteratorIN8osmscout5CacheImNS3_3RefINS3_6RawWayEEEmE10CacheEntryEEESaISB_ENSt8__detail10_Select1stESt8equal_toImESt4hashImENSD_18_Mod_range_hashingENSD_20_Default_ranged_hashENSD_20_Prime_rehash_policyENSD_17_Hashtable_traitsILb0ELb0ELb1EEEE21_M_insert_unique_nodeEmmPNSD_10_Hash_nodeISB_Lb0EEE@Base 0.1
 _ZNSt10_HashtableImSt4pairIKmSt14_List_iteratorIN8osmscout5CacheImNS3_3RefINS3_6RawWayEEEmE10CacheEntryEEESaISB_ENSt8__detail10_Select1stESt8equal_toImESt4hashImENSD_18_Mod_range_hashingENSD_20_Default_ranged_hashENSD_20_Prime_rehash_policyENSD_17_Hashtable_traitsILb0ELb0ELb1EEEE4findERS1_@Base 0.1
 _ZNSt10_HashtableImSt4pairIKmSt14_List_iteratorIN8osmscout5CacheImNS3_3RefINS3_6RawWayEEEmE10CacheEntryEEESaISB_ENSt8__detail10_Select1stESt8equal_toImESt4hashImENSD_18_Mod_range_hashingENSD_20_Default_ranged_hashENSD_20_Prime_rehash_policyENSD_17_Hashtable_traitsILb0ELb0ELb1EEEE5clearEv@Base 0.1
 _ZNSt10_HashtableImSt4pairIKmSt14_List_iteratorIN8osmscout5CacheImNS3_3RefINS3_6RawWayEEEmE10CacheEntryEEESaISB_ENSt8__detail10_Select1stESt8equal_toImESt4hashImENSD_18_Mod_range_hashingENSD_20_Default_ranged_hashENSD_20_Prime_rehash_policyENSD_17_Hashtable_traitsILb0ELb0ELb1EEEE6rehashEm@Base 0.1
 _ZNSt10_HashtableImSt4pairIKmSt4listIN8osmscout3RefINS3_4AreaEEESaIS6_EEESaIS9_ENSt8__detail10_Select1stESt8equal_toImESt4hashImENSB_18_Mod_range_hashingENSB_20_Default_ranged_hashENSB_20_Prime_rehash_policyENSB_17_Hashtable_traitsILb0ELb0ELb1EEEE21_M_insert_unique_nodeEmmPNSB_10_Hash_nodeIS9_Lb0EEE@Base 0.1
 _ZNSt10_HashtableImSt4pairIKmSt4listIN8osmscout3RefINS3_4AreaEEESaIS6_EEESaIS9_ENSt8__detail10_Select1stESt8equal_toImESt4hashImENSB_18_Mod_range_hashingENSB_20_Default_ranged_hashENSB_20_Prime_rehash_policyENSB_17_Hashtable_traitsILb0ELb0ELb1EEEE5clearEv@Base 0.1
 _ZNSt10_HashtableImSt4pairIKmmESaIS2_ENSt8__detail10_Select1stESt8equal_toImESt4hashImENS4_18_Mod_range_hashingENS4_20_Default_ranged_hashENS4_20_Prime_rehash_policyENS4_17_Hashtable_traitsILb0ELb0ELb1EEEE21_M_insert_unique_nodeEmmPNS4_10_Hash_nodeIS2_Lb0EEE@Base 0.1
 _ZNSt10_HashtableImSt4pairIKmmESaIS2_ENSt8__detail10_Select1stESt8equal_toImESt4hashImENS4_18_Mod_range_hashingENS4_20_Default_ranged_hashENS4_20_Prime_rehash_policyENS4_17_Hashtable_traitsILb0ELb0ELb1EEEE5clearEv@Base 0.1
 _ZNSt10_HashtableImmSaImENSt8__detail9_IdentityESt8equal_toImESt4hashImENS1_18_Mod_range_hashingENS1_20_Default_ranged_hashENS1_20_Prime_rehash_policyENS1_17_Hashtable_traitsILb0ELb1ELb1EEEE21_M_insert_unique_nodeEmmPNS1_10_Hash_nodeImLb0EEE@Base 0.1
 _ZNSt10_HashtableImmSaImENSt8__detail9_IdentityESt8equal_toImESt4hashImENS1_18_Mod_range_hashingENS1_20_Default_ranged_hashENS1_20_Prime_rehash_policyENS1_17_Hashtable_traitsILb0ELb1ELb1EEEE4findERKm@Base 0.1
 _ZNSt10_HashtableImmSaImENSt8__detail9_IdentityESt8equal_toImESt4hashImENS1_18_Mod_range_hashingENS1_20_Default_ranged_hashENS1_20_Prime_rehash_policyENS1_17_Hashtable_traitsILb0ELb1ELb1EEEE5clearEv@Base 0.1
 _ZNSt10_HashtableImmSaImENSt8__detail9_IdentityESt8equal_toImESt4hashImENS1_18_Mod_range_hashingENS1_20_Default_ranged_hashENS1_20_Prime_rehash_policyENS1_17_Hashtable_traitsILb0ELb1ELb1EEEE9_M_insertIRKmEESt4pairINS1_14_Node_iteratorImLb1ELb0EEEbEOT_St17integral_constantIbLb1EE@Base 0.1
 _ZNSt10_HashtableItSt4pairIKtSsESaIS2_ENSt8__detail10_Select1stESt8equal_toItESt4hashItENS4_18_Mod_range_hashingENS4_20_Default_ranged_hashENS4_20_Prime_rehash_policyENS4_17_Hashtable_traitsILb0ELb0ELb1EEEE21_M_insert_unique_nodeEmmPNS4_10_Hash_nodeIS2_Lb0EEE@Base 0.1
 _ZNSt10_HashtableItSt4pairIKtSsESaIS2_ENSt8__detail10_Select1stESt8equal_toItESt4hashItENS4_18_Mod_range_hashingENS4_20_Default_ranged_hashENS4_20_Prime_rehash_policyENS4_17_Hashtable_traitsILb0ELb0ELb1EEEE5clearEv@Base 0.1
 _ZNSt10_List_baseIN8osmscout10GroundTileESaIS1_EE8_M_clearEv@Base 0.1
 _ZNSt10_List_baseIN8osmscout13PolygonMerger7PolygonESaIS2_EE8_M_clearEv@Base 0.1
 _ZNSt10_List_baseIN8osmscout17SortDataGeneratorINS0_3WayEE6SourceESaIS4_EE8_M_clearEv@Base 0.1
 _ZNSt10_List_baseIN8osmscout17SortDataGeneratorINS0_4AreaEE6SourceESaIS4_EE8_M_clearEv@Base 0.1
 _ZNSt10_List_baseIN8osmscout17SortDataGeneratorINS0_4NodeEE6SourceESaIS4_EE8_M_clearEv@Base 0.1
 _ZNSt10_List_baseIN8osmscout20RelAreaDataGenerator16MultipolygonPartESaIS2_EE8_M_clearEv@Base 0.1
 _ZNSt10_List_baseIN8osmscout22LocationIndexGenerator13RegionAddressESaIS2_EE8_M_clearEv@Base 0.1
 _ZNSt10_List_baseIN8osmscout22LocationIndexGenerator8BoundaryESaIS2_EE8_M_clearEv@Base 0.1
 _ZNSt10_List_baseIN8osmscout22LocationIndexGenerator9RegionPOIESaIS2_EE8_M_clearEv@Base 0.1
 _ZNSt10_List_baseIN8osmscout28OptimizeWaysLowZoomGenerator8TypeDataESaIS2_EE8_M_clearEv@Base 0.1
 _ZNSt10_List_baseIN8osmscout29OptimizeAreasLowZoomGenerator8TypeDataESaIS2_EE8_M_clearEv@Base 0.1
 _ZNSt10_List_baseIN8osmscout3RefINS0_12RawCoastlineEEESaIS3_EE8_M_clearEv@Base 0.1
 _ZNSt10_List_baseIN8osmscout3RefINS0_15TurnRestrictionEEESaIS3_EE8_M_clearEv@Base 0.1
 _ZNSt10_List_baseIN8osmscout3RefINS0_19WaterIndexGenerator5CoastEEESaIS4_EE8_M_clearEv@Base 0.1
 _ZNSt10_List_baseIN8osmscout3RefINS0_22LocationIndexGenerator6RegionEEESaIS4_EE8_M_clearEv@Base 0.1
 _ZNSt10_List_baseIN8osmscout3RefINS0_3WayEEESaIS3_EE8_M_clearEv@Base 0.1
 _ZNSt10_List_baseIN8osmscout3RefINS0_4AreaEEESaIS3_EE8_M_clearEv@Base 0.1
 _ZNSt10_List_baseIN8osmscout3RefINS0_6RawWayEEESaIS3_EE8_M_clearEv@Base 0.1
 _ZNSt10_List_baseIN8osmscout5CacheIlNS0_3RefINS0_12NumericIndexIlE4PageEEEmE10CacheEntryESaIS8_EE8_M_clearEv@Base 0.1
 _ZNSt10_List_baseIN8osmscout5CacheImNS0_3RefINS0_11RawRelationEEEmE10CacheEntryESaIS6_EE8_M_clearEv@Base 0.1
 _ZNSt10_List_baseIN8osmscout5CacheImNS0_3RefINS0_6RawWayEEEmE10CacheEntryESaIS6_EE8_M_clearEv@Base 0.1
 _ZNSt10_List_baseISsSaISsEE8_M_clearEv@Base 0.1
 _ZNSt15_Sp_counted_ptrIPN8osmscout10TypeConfigELN9__gnu_cxx12_Lock_policyE2EE10_M_destroyEv@Base 0.1
 _ZNSt15_Sp_counted_ptrIPN8osmscout10TypeConfigELN9__gnu_cxx12_Lock_policyE2EE10_M_disposeEv@Base 0.1
 _ZNSt15_Sp_counted_ptrIPN8osmscout10TypeConfigELN9__gnu_cxx12_Lock_policyE2EE14_M_get_deleterERKSt9type_info@Base 0.1
 _ZNSt15_Sp_counted_ptrIPN8osmscout10TypeConfigELN9__gnu_cxx12_Lock_policyE2EED0Ev@Base 0.1
 _ZNSt15_Sp_counted_ptrIPN8osmscout10TypeConfigELN9__gnu_cxx12_Lock_policyE2EED1Ev@Base 0.1
 _ZNSt15_Sp_counted_ptrIPN8osmscout10TypeConfigELN9__gnu_cxx12_Lock_policyE2EED2Ev@Base 0.1
 _ZNSt16_Sp_counted_baseILN9__gnu_cxx12_Lock_policyE2EE10_M_destroyEv@Base 0.1
 _ZNSt16_Sp_counted_baseILN9__gnu_cxx12_Lock_policyE2EE10_M_releaseEv@Base 0.1
 _ZNSt16_Sp_counted_baseILN9__gnu_cxx12_Lock_policyE2EE15_M_add_ref_copyEv@Base 0.1
 _ZNSt16_Sp_counted_baseILN9__gnu_cxx12_Lock_policyE2EED0Ev@Base 0.1
 _ZNSt16_Sp_counted_baseILN9__gnu_cxx12_Lock_policyE2EED1Ev@Base 0.1
 _ZNSt16_Sp_counted_baseILN9__gnu_cxx12_Lock_policyE2EED2Ev@Base 0.1
 _ZNSt3mapISsN8osmscout22LocationIndexGenerator14RegionLocationESt4lessISsESaISt4pairIKSsS2_EEEixERS6_@Base 0.1
 _ZNSt3mapImSt4listIN8osmscout18RouteDataGenerator13PendingOffsetESaIS3_EESt4lessImESaISt4pairIKmS5_EEEixERS9_@Base 0.1
 _ZNSt4listIN8osmscout13ObjectFileRefESaIS1_EE4sortINS0_35ObjectFileRefByFileOffsetComparatorEEEvT_@Base 0.1
 _ZNSt4listIN8osmscout13ObjectFileRefESaIS1_EE5mergeINS0_35ObjectFileRefByFileOffsetComparatorEEEvOS3_T_@Base 0.1
 _ZNSt4listIN8osmscout17SortDataGeneratorINS0_3WayEE9CellEntryESaIS4_EE4sortEv@Base 0.1
 _ZNSt4listIN8osmscout17SortDataGeneratorINS0_3WayEE9CellEntryESaIS4_EE5mergeEOS6_@Base 0.1
 _ZNSt4listIN8osmscout17SortDataGeneratorINS0_4AreaEE9CellEntryESaIS4_EE4sortEv@Base 0.1
 _ZNSt4listIN8osmscout17SortDataGeneratorINS0_4AreaEE9CellEntryESaIS4_EE5mergeEOS6_@Base 0.1
 _ZNSt4listIN8osmscout17SortDataGeneratorINS0_4NodeEE9CellEntryESaIS4_EE4sortEv@Base 0.1
 _ZNSt4listIN8osmscout17SortDataGeneratorINS0_4NodeEE9CellEntryESaIS4_EE5mergeEOS6_@Base 0.1
 _ZNSt4listIN8osmscout18RouteDataGenerator13PendingOffsetESaIS2_EE9push_backERKS2_@Base 0.1
 _ZNSt4listIN8osmscout20RelAreaDataGenerator16MultipolygonPartESaIS2_EEaSERKS4_@Base 0.1
 _ZNSt4listIN8osmscout22LocationIndexGenerator13RegionAddressESaIS2_EE4sortEv@Base 0.1
 _ZNSt4listIN8osmscout22LocationIndexGenerator13RegionAddressESaIS2_EE5mergeEOS4_@Base 0.1
 _ZNSt4listIN8osmscout22LocationIndexGenerator9RegionPOIESaIS2_EE4sortEv@Base 0.1
 _ZNSt4listIN8osmscout22LocationIndexGenerator9RegionPOIESaIS2_EE5mergeEOS4_@Base 0.1
 _ZNSt4listIN8osmscout3RefINS0_19WaterIndexGenerator5CoastEEESaIS4_EEaSERKS6_@Base 0.1
 _ZNSt4listIN8osmscout3RefINS0_6RawWayEEESaIS3_EE4sortIPFbRKS3_S8_EEEvT_@Base 0.1
 _ZNSt4listIN8osmscout3RefINS0_6RawWayEEESaIS3_EE5mergeIPFbRKS3_S8_EEEvOS5_T_@Base 0.1
 _ZNSt4listIN8osmscout3RefINS0_6RawWayEEESaIS3_EEaSERKS5_@Base 0.1
 _ZNSt4listIPN8osmscout19WaterIndexGenerator12IntersectionESaIS3_EE4sortINS1_24IntersectionCWComparatorEEEvT_@Base 0.1
 _ZNSt4listIPN8osmscout19WaterIndexGenerator12IntersectionESaIS3_EE4sortINS1_28IntersectionByPathComparatorEEEvT_@Base 0.1
 _ZNSt4listIPN8osmscout19WaterIndexGenerator12IntersectionESaIS3_EE5mergeINS1_24IntersectionCWComparatorEEEvOS5_T_@Base 0.1
 _ZNSt4listIPN8osmscout19WaterIndexGenerator12IntersectionESaIS3_EE5mergeINS1_28IntersectionByPathComparatorEEEvOS5_T_@Base 0.1
 _ZNSt4listISsSaISsEEaSERKS1_@Base 0.1
 _ZNSt6vectorIN8osmscout10GroundTile5CoordESaIS2_EE12emplace_backIIS2_EEEvDpOT_@Base 0.1
 _ZNSt6vectorIN8osmscout10GroundTile5CoordESaIS2_EE12emplace_backIJS2_EEEvDpOT_@Base 0.1
 _ZNSt6vectorIN8osmscout10GroundTile5CoordESaIS2_EE19_M_emplace_back_auxIIRKS2_EEEvDpOT_@Base 0.1
 _ZNSt6vectorIN8osmscout10GroundTile5CoordESaIS2_EE19_M_emplace_back_auxIIS2_EEEvDpOT_@Base 0.1
 _ZNSt6vectorIN8osmscout10GroundTile5CoordESaIS2_EE19_M_emplace_back_auxIJRKS2_EEEvDpOT_@Base 0.1
 _ZNSt6vectorIN8osmscout10GroundTile5CoordESaIS2_EE19_M_emplace_back_auxIJS2_EEEvDpOT_@Base 0.1
 _ZNSt6vectorIN8osmscout11RawRelation6MemberESaIS2_EE17_M_default_appendEm@Base 0.1
 _ZNSt6vectorIN8osmscout11RawRelation6MemberESaIS2_EE19_M_emplace_back_auxIIRKS2_EEEvDpOT_@Base 0.1
 _ZNSt6vectorIN8osmscout11RawRelation6MemberESaIS2_EE19_M_emplace_back_auxIJRKS2_EEEvDpOT_@Base 0.1
 _ZNSt6vectorIN8osmscout11RawRelation6MemberESaIS2_EED1Ev@Base 0.1
 _ZNSt6vectorIN8osmscout11RawRelation6MemberESaIS2_EED2Ev@Base 0.1
 _ZNSt6vectorIN8osmscout11RawRelation6MemberESaIS2_EEaSERKS4_@Base 0.1
 _ZNSt6vectorIN8osmscout12NumericIndexIlE5EntryESaIS3_EE19_M_emplace_back_auxIIRKS3_EEEvDpOT_@Base 0.1
 _ZNSt6vectorIN8osmscout12NumericIndexIlE5EntryESaIS3_EE19_M_emplace_back_auxIJRKS3_EEEvDpOT_@Base 0.1
 _ZNSt6vectorIN8osmscout12NumericIndexIlE5EntryESaIS3_EE7reserveEm@Base 0.1
 _ZNSt6vectorIN8osmscout18RouteDataGenerator19TurnRestrictionDataESaIS2_EE19_M_emplace_back_auxIIRKS2_EEEvDpOT_@Base 0.1
 _ZNSt6vectorIN8osmscout18RouteDataGenerator19TurnRestrictionDataESaIS2_EE19_M_emplace_back_auxIJRKS2_EEEvDpOT_@Base 0.1
 _ZNSt6vectorIN8osmscout19WaterIndexGenerator13CoastlineDataESaIS2_EE17_M_default_appendEm@Base 0.1
 _ZNSt6vectorIN8osmscout19WaterIndexGenerator5LevelESaIS2_EE17_M_default_appendEm@Base 0.1
 _ZNSt6vectorIN8osmscout19WayWayDataGenerator12DistributionESaIS2_EE17_M_default_appendEm@Base 0.1
 _ZNSt6vectorIN8osmscout20WayAreaDataGenerator12DistributionESaIS2_EE17_M_default_appendEm@Base 0.1
 _ZNSt6vectorIN8osmscout21AreaWayIndexGenerator8TypeDataESaIS2_EE17_M_default_appendEm@Base 0.1
 _ZNSt6vectorIN8osmscout22AreaNodeIndexGenerator8TypeDataESaIS2_EE17_M_default_appendEm@Base 0.1
 _ZNSt6vectorIN8osmscout3RefINS0_11RawRelationEEESaIS3_EE19_M_emplace_back_auxIIRKS3_EEEvDpOT_@Base 0.1
 _ZNSt6vectorIN8osmscout3RefINS0_11RawRelationEEESaIS3_EE19_M_emplace_back_auxIIS3_EEEvDpOT_@Base 0.1
 _ZNSt6vectorIN8osmscout3RefINS0_11RawRelationEEESaIS3_EE19_M_emplace_back_auxIJRKS3_EEEvDpOT_@Base 0.1
 _ZNSt6vectorIN8osmscout3RefINS0_11RawRelationEEESaIS3_EE19_M_emplace_back_auxIJS3_EEEvDpOT_@Base 0.1
 _ZNSt6vectorIN8osmscout3RefINS0_11RawRelationEEESaIS3_EE7reserveEm@Base 0.1
 _ZNSt6vectorIN8osmscout3RefINS0_11RawRelationEEESaIS3_EED1Ev@Base 0.1
 _ZNSt6vectorIN8osmscout3RefINS0_11RawRelationEEESaIS3_EED2Ev@Base 0.1
 _ZNSt6vectorIN8osmscout3RefINS0_6RawWayEEESaIS3_EE19_M_emplace_back_auxIIRKS3_EEEvDpOT_@Base 0.1
 _ZNSt6vectorIN8osmscout3RefINS0_6RawWayEEESaIS3_EE19_M_emplace_back_auxIIS3_EEEvDpOT_@Base 0.1
 _ZNSt6vectorIN8osmscout3RefINS0_6RawWayEEESaIS3_EE19_M_emplace_back_auxIJRKS3_EEEvDpOT_@Base 0.1
 _ZNSt6vectorIN8osmscout3RefINS0_6RawWayEEESaIS3_EE19_M_emplace_back_auxIJS3_EEEvDpOT_@Base 0.1
 _ZNSt6vectorIN8osmscout3RefINS0_6RawWayEEESaIS3_EE7reserveEm@Base 0.1
 _ZNSt6vectorIN8osmscout3RefINS0_6RawWayEEESaIS3_EED1Ev@Base 0.1
 _ZNSt6vectorIN8osmscout3RefINS0_6RawWayEEESaIS3_EED2Ev@Base 0.1
 _ZNSt6vectorIN8osmscout4Area4RingESaIS2_EE19_M_emplace_back_auxIIRKS2_EEEvDpOT_@Base 0.1
 _ZNSt6vectorIN8osmscout4Area4RingESaIS2_EE19_M_emplace_back_auxIJRKS2_EEEvDpOT_@Base 0.1
 _ZNSt6vectorIN8osmscout4Area4RingESaIS2_EE5eraseEN9__gnu_cxx17__normal_iteratorIPS2_S4_EE@Base 0.1
 _ZNSt6vectorIN8osmscout4Area4RingESaIS2_EE7reserveEm@Base 0.1
 _ZNSt6vectorIN8osmscout4Area4RingESaIS2_EED1Ev@Base 0.1
 _ZNSt6vectorIN8osmscout4Area4RingESaIS2_EED2Ev@Base 0.1
 _ZNSt6vectorIN8osmscout4Area4RingESaIS2_EEaSERKS4_@Base 0.1
 _ZNSt6vectorIN8osmscout5CacheIlNS0_3RefINS0_12NumericIndexIlE4PageEEEmEESaIS7_EE19_M_emplace_back_auxIIS7_EEEvDpOT_@Base 0.1
 _ZNSt6vectorIN8osmscout5CacheIlNS0_3RefINS0_12NumericIndexIlE4PageEEEmEESaIS7_EE19_M_emplace_back_auxIJS7_EEEvDpOT_@Base 0.1
 _ZNSt6vectorIN8osmscout8GeoCoordESaIS1_EE17_M_default_appendEm@Base 0.1
 _ZNSt6vectorIN8osmscout8GeoCoordESaIS1_EE19_M_emplace_back_auxIIRKS1_EEEvDpOT_@Base 0.1
 _ZNSt6vectorIN8osmscout8GeoCoordESaIS1_EE19_M_emplace_back_auxIIS1_EEEvDpOT_@Base 0.1
 _ZNSt6vectorIN8osmscout8GeoCoordESaIS1_EE19_M_emplace_back_auxIJRKS1_EEEvDpOT_@Base 0.1
 _ZNSt6vectorIN8osmscout8GeoCoordESaIS1_EE19_M_emplace_back_auxIJS1_EEEvDpOT_@Base 0.1
 _ZNSt6vectorIN8osmscout8GeoCoordESaIS1_EE7reserveEm@Base 0.1
 _ZNSt6vectorIN8osmscout8GeoCoordESaIS1_EEaSERKS3_@Base 0.1
 _ZNSt6vectorIN8osmscout9RouteNode4PathESaIS2_EE19_M_emplace_back_auxIIRKS2_EEEvDpOT_@Base 0.1
 _ZNSt6vectorIN8osmscout9RouteNode4PathESaIS2_EE19_M_emplace_back_auxIJRKS2_EEEvDpOT_@Base 0.1
 _ZNSt6vectorIN8osmscout9RouteNode7ExcludeESaIS2_EE19_M_emplace_back_auxIIRKS2_EEEvDpOT_@Base 0.1
 _ZNSt6vectorIN8osmscout9RouteNode7ExcludeESaIS2_EE19_M_emplace_back_auxIJRKS2_EEEvDpOT_@Base 0.1
 _ZNSt6vectorIS_IN8osmscout8GeoCoordESaIS1_EESaIS3_EE19_M_emplace_back_auxIIRKS3_EEEvDpOT_@Base 0.1
 _ZNSt6vectorIS_IN8osmscout8GeoCoordESaIS1_EESaIS3_EE19_M_emplace_back_auxIJRKS3_EEEvDpOT_@Base 0.1
 _ZNSt6vectorIS_IN8osmscout8GeoCoordESaIS1_EESaIS3_EEaSERKS5_@Base 0.1
 _ZNSt6vectorISt10shared_ptrIN8osmscout8TypeInfoEESaIS3_EED1Ev@Base 0.1
 _ZNSt6vectorISt10shared_ptrIN8osmscout8TypeInfoEESaIS3_EED2Ev@Base 0.1
 _ZNSt6vectorISt3mapIN8osmscout5PixelESt4listImSaImEESt4lessIS2_ESaISt4pairIKS2_S5_EEESaISC_EE17_M_default_appendEm@Base 0.1
 _ZNSt6vectorISt3mapIN8osmscout5PixelESt4listImSaImEESt4lessIS2_ESaISt4pairIKS2_S5_EEESaISC_EED1Ev@Base 0.1
 _ZNSt6vectorISt3mapIN8osmscout5PixelESt4listImSaImEESt4lessIS2_ESaISt4pairIKS2_S5_EEESaISC_EED2Ev@Base 0.1
 _ZNSt6vectorISt3mapIN8osmscout5PixelEmSt4lessIS2_ESaISt4pairIKS2_mEEESaIS9_EE17_M_default_appendEm@Base 0.1
 _ZNSt6vectorISt4listIN8osmscout3RefINS1_22LocationIndexGenerator6RegionEEESaIS5_EESaIS7_EE17_M_default_appendEm@Base 0.1
 _ZNSt6vectorISt4listIN8osmscout3RefINS1_22LocationIndexGenerator6RegionEEESaIS5_EESaIS7_EED1Ev@Base 0.1
 _ZNSt6vectorISt4listIN8osmscout3RefINS1_22LocationIndexGenerator6RegionEEESaIS5_EESaIS7_EED2Ev@Base 0.1
 _ZNSt6vectorISt4listIN8osmscout3RefINS1_6RawWayEEESaIS4_EESaIS6_EED1Ev@Base 0.1
 _ZNSt6vectorISt4listIN8osmscout3RefINS1_6RawWayEEESaIS4_EESaIS6_EED2Ev@Base 0.1
 _ZNSt6vectorISt4listIPN8osmscout19WaterIndexGenerator12IntersectionESaIS4_EESaIS6_EE17_M_default_appendEm@Base 0.1
 _ZNSt6vectorIbSaIbEE14_M_fill_insertESt13_Bit_iteratormb@Base 0.1
 _ZNSt6vectorIdSaIdEE17_M_default_appendEm@Base 0.1
 _ZNSt6vectorIhSaIhEE14_M_fill_insertEN9__gnu_cxx17__normal_iteratorIPhS1_EEmRKh@Base 0.1
 _ZNSt6vectorIhSaIhEEaSERKS1_@Base 0.1
 _ZNSt6vectorIjSaIjEE12emplace_backIIjEEEvDpOT_@Base 0.1
 _ZNSt6vectorIjSaIjEE12emplace_backIJjEEEvDpOT_@Base 0.1
 _ZNSt6vectorIjSaIjEE14_M_fill_insertEN9__gnu_cxx17__normal_iteratorIPjS1_EEmRKj@Base 0.1
 _ZNSt6vectorIjSaIjEE17_M_default_appendEm@Base 0.1
 _ZNSt6vectorIjSaIjEE19_M_emplace_back_auxIIjEEEvDpOT_@Base 0.1
 _ZNSt6vectorIjSaIjEE19_M_emplace_back_auxIJjEEEvDpOT_@Base 0.1
 _ZNSt6vectorIlSaIlEE17_M_default_appendEm@Base 0.1
 _ZNSt6vectorIlSaIlEE19_M_emplace_back_auxIIRKlEEEvDpOT_@Base 0.1
 _ZNSt6vectorIlSaIlEE19_M_emplace_back_auxIIlEEEvDpOT_@Base 0.1
 _ZNSt6vectorIlSaIlEE19_M_emplace_back_auxIJRKlEEEvDpOT_@Base 0.1
 _ZNSt6vectorIlSaIlEE19_M_emplace_back_auxIJlEEEvDpOT_@Base 0.1
 _ZNSt6vectorIlSaIlEE7reserveEm@Base 0.1
 _ZNSt6vectorIlSaIlEEaSERKS1_@Base 0.1
 _ZNSt6vectorImSaImEE12emplace_backIImEEEvDpOT_@Base 0.1
 _ZNSt6vectorImSaImEE12emplace_backIJmEEEvDpOT_@Base 0.1
 _ZNSt6vectorImSaImEE14_M_fill_insertEN9__gnu_cxx17__normal_iteratorIPmS1_EEmRKm@Base 0.1
 _ZNSt6vectorImSaImEE17_M_default_appendEm@Base 0.1
 _ZNSt6vectorImSaImEE19_M_emplace_back_auxIIRKmEEEvDpOT_@Base 0.1
 _ZNSt6vectorImSaImEE19_M_emplace_back_auxIImEEEvDpOT_@Base 0.1
 _ZNSt6vectorImSaImEE19_M_emplace_back_auxIJRKmEEEvDpOT_@Base 0.1
 _ZNSt6vectorImSaImEE19_M_emplace_back_auxIJmEEEvDpOT_@Base 0.1
 _ZNSt6vectorImSaImEE7reserveEm@Base 0.1
 _ZNSt6vectorImSaImEEaSERKS1_@Base 0.1
 _ZNSt8_Rb_treeIN8osmscout3RefINS0_15TurnRestrictionEEES3_St9_IdentityIS3_ESt4lessIS3_ESaIS3_EE8_M_eraseEPSt13_Rb_tree_nodeIS3_E@Base 0.1
 _ZNSt8_Rb_treeIN8osmscout5PixelES1_St9_IdentityIS1_ESt4lessIS1_ESaIS1_EE16_M_insert_uniqueIRKS1_EESt4pairISt17_Rb_tree_iteratorIS1_EbEOT_@Base 0.1
 _ZNSt8_Rb_treeIN8osmscout5PixelES1_St9_IdentityIS1_ESt4lessIS1_ESaIS1_EE16_M_insert_uniqueIS1_EESt4pairISt17_Rb_tree_iteratorIS1_EbEOT_@Base 0.1
 _ZNSt8_Rb_treeIN8osmscout5PixelES1_St9_IdentityIS1_ESt4lessIS1_ESaIS1_EE24_M_get_insert_unique_posERKS1_@Base 0.1
 _ZNSt8_Rb_treeIN8osmscout5PixelES1_St9_IdentityIS1_ESt4lessIS1_ESaIS1_EE8_M_eraseEPSt13_Rb_tree_nodeIS1_E@Base 0.1
 _ZNSt8_Rb_treeIN8osmscout5PixelESt4pairIKS1_NS0_22AreaAreaIndexGenerator8AreaLeafEESt10_Select1stIS6_ESt4lessIS1_ESaIS6_EE22_M_emplace_hint_uniqueIIRKSt21piecewise_construct_tSt5tupleIIOS1_EESH_IIEEEEESt17_Rb_tree_iteratorIS6_ESt23_Rb_tree_const_iteratorIS6_EDpOT_@Base 0.1
 _ZNSt8_Rb_treeIN8osmscout5PixelESt4pairIKS1_NS0_22AreaAreaIndexGenerator8AreaLeafEESt10_Select1stIS6_ESt4lessIS1_ESaIS6_EE22_M_emplace_hint_uniqueIJRKSt21piecewise_construct_tSt5tupleIJOS1_EESH_IJEEEEESt17_Rb_tree_iteratorIS6_ESt23_Rb_tree_const_iteratorIS6_EDpOT_@Base 0.1
 _ZNSt8_Rb_treeIN8osmscout5PixelESt4pairIKS1_NS0_22AreaAreaIndexGenerator8AreaLeafEESt10_Select1stIS6_ESt4lessIS1_ESaIS6_EE24_M_get_insert_unique_posERS3_@Base 0.1
 _ZNSt8_Rb_treeIN8osmscout5PixelESt4pairIKS1_NS0_22AreaAreaIndexGenerator8AreaLeafEESt10_Select1stIS6_ESt4lessIS1_ESaIS6_EE29_M_get_insert_hint_unique_posESt23_Rb_tree_const_iteratorIS6_ERS3_@Base 0.1
 _ZNSt8_Rb_treeIN8osmscout5PixelESt4pairIKS1_NS0_22AreaAreaIndexGenerator8AreaLeafEESt10_Select1stIS6_ESt4lessIS1_ESaIS6_EE7_M_copyEPKSt13_Rb_tree_nodeIS6_EPSE_@Base 0.1
 _ZNSt8_Rb_treeIN8osmscout5PixelESt4pairIKS1_NS0_22AreaAreaIndexGenerator8AreaLeafEESt10_Select1stIS6_ESt4lessIS1_ESaIS6_EE8_M_eraseEPSt13_Rb_tree_nodeIS6_E@Base 0.1
 _ZNSt8_Rb_treeIN8osmscout5PixelESt4pairIKS1_St4listINS0_10GroundTileESaIS5_EEESt10_Select1stIS8_ESt4lessIS1_ESaIS8_EE22_M_emplace_hint_uniqueIIRKSt21piecewise_construct_tSt5tupleIIRS3_EESJ_IIEEEEESt17_Rb_tree_iteratorIS8_ESt23_Rb_tree_const_iteratorIS8_EDpOT_@Base 0.1
 _ZNSt8_Rb_treeIN8osmscout5PixelESt4pairIKS1_St4listINS0_10GroundTileESaIS5_EEESt10_Select1stIS8_ESt4lessIS1_ESaIS8_EE22_M_emplace_hint_uniqueIJRKSt21piecewise_construct_tSt5tupleIJRS3_EESJ_IJEEEEESt17_Rb_tree_iteratorIS8_ESt23_Rb_tree_const_iteratorIS8_EDpOT_@Base 0.1
 _ZNSt8_Rb_treeIN8osmscout5PixelESt4pairIKS1_St4listINS0_10GroundTileESaIS5_EEESt10_Select1stIS8_ESt4lessIS1_ESaIS8_EE24_M_get_insert_unique_posERS3_@Base 0.1
 _ZNSt8_Rb_treeIN8osmscout5PixelESt4pairIKS1_St4listINS0_10GroundTileESaIS5_EEESt10_Select1stIS8_ESt4lessIS1_ESaIS8_EE29_M_get_insert_hint_unique_posESt23_Rb_tree_const_iteratorIS8_ERS3_@Base 0.1
 _ZNSt8_Rb_treeIN8osmscout5PixelESt4pairIKS1_St4listINS0_10GroundTileESaIS5_EEESt10_Select1stIS8_ESt4lessIS1_ESaIS8_EE8_M_eraseEPSt13_Rb_tree_nodeIS8_E@Base 0.1
 _ZNSt8_Rb_treeIN8osmscout5PixelESt4pairIKS1_St4listINS0_19WaterIndexGenerator12IntersectionESaIS6_EEESt10_Select1stIS9_ESt4lessIS1_ESaIS9_EE22_M_emplace_hint_uniqueIIRKSt21piecewise_construct_tSt5tupleIIRS3_EESK_IIEEEEESt17_Rb_tree_iteratorIS9_ESt23_Rb_tree_const_iteratorIS9_EDpOT_@Base 0.1
 _ZNSt8_Rb_treeIN8osmscout5PixelESt4pairIKS1_St4listINS0_19WaterIndexGenerator12IntersectionESaIS6_EEESt10_Select1stIS9_ESt4lessIS1_ESaIS9_EE22_M_emplace_hint_uniqueIJRKSt21piecewise_construct_tSt5tupleIJRS3_EESK_IJEEEEESt17_Rb_tree_iteratorIS9_ESt23_Rb_tree_const_iteratorIS9_EDpOT_@Base 0.1
 _ZNSt8_Rb_treeIN8osmscout5PixelESt4pairIKS1_St4listINS0_19WaterIndexGenerator12IntersectionESaIS6_EEESt10_Select1stIS9_ESt4lessIS1_ESaIS9_EE24_M_get_insert_unique_posERS3_@Base 0.1
 _ZNSt8_Rb_treeIN8osmscout5PixelESt4pairIKS1_St4listINS0_19WaterIndexGenerator12IntersectionESaIS6_EEESt10_Select1stIS9_ESt4lessIS1_ESaIS9_EE29_M_get_insert_hint_unique_posESt23_Rb_tree_const_iteratorIS9_ERS3_@Base 0.1
 _ZNSt8_Rb_treeIN8osmscout5PixelESt4pairIKS1_St4listINS0_19WaterIndexGenerator12IntersectionESaIS6_EEESt10_Select1stIS9_ESt4lessIS1_ESaIS9_EE8_M_eraseEPSt13_Rb_tree_nodeIS9_E@Base 0.1
 _ZNSt8_Rb_treeIN8osmscout5PixelESt4pairIKS1_St4listINS0_3RefINS0_22LocationIndexGenerator6RegionEEESaIS8_EEESt10_Select1stISB_ESt4lessIS1_ESaISB_EE22_M_emplace_hint_uniqueIIRKSt21piecewise_construct_tSt5tupleIIRS3_EESM_IIEEEEESt17_Rb_tree_iteratorISB_ESt23_Rb_tree_const_iteratorISB_EDpOT_@Base 0.1
 _ZNSt8_Rb_treeIN8osmscout5PixelESt4pairIKS1_St4listINS0_3RefINS0_22LocationIndexGenerator6RegionEEESaIS8_EEESt10_Select1stISB_ESt4lessIS1_ESaISB_EE22_M_emplace_hint_uniqueIJRKSt21piecewise_construct_tSt5tupleIJRS3_EESM_IJEEEEESt17_Rb_tree_iteratorISB_ESt23_Rb_tree_const_iteratorISB_EDpOT_@Base 0.1
 _ZNSt8_Rb_treeIN8osmscout5PixelESt4pairIKS1_St4listINS0_3RefINS0_22LocationIndexGenerator6RegionEEESaIS8_EEESt10_Select1stISB_ESt4lessIS1_ESaISB_EE24_M_get_insert_unique_posERS3_@Base 0.1
 _ZNSt8_Rb_treeIN8osmscout5PixelESt4pairIKS1_St4listINS0_3RefINS0_22LocationIndexGenerator6RegionEEESaIS8_EEESt10_Select1stISB_ESt4lessIS1_ESaISB_EE29_M_get_insert_hint_unique_posESt23_Rb_tree_const_iteratorISB_ERS3_@Base 0.1
 _ZNSt8_Rb_treeIN8osmscout5PixelESt4pairIKS1_St4listINS0_3RefINS0_22LocationIndexGenerator6RegionEEESaIS8_EEESt10_Select1stISB_ESt4lessIS1_ESaISB_EE8_M_eraseEPSt13_Rb_tree_nodeISB_E@Base 0.1
 _ZNSt8_Rb_treeIN8osmscout5PixelESt4pairIKS1_St4listImSaImEEESt10_Select1stIS7_ESt4lessIS1_ESaIS7_EE22_M_emplace_hint_uniqueIIRKSt21piecewise_construct_tSt5tupleIIOS1_EESI_IIEEEEESt17_Rb_tree_iteratorIS7_ESt23_Rb_tree_const_iteratorIS7_EDpOT_@Base 0.1
 _ZNSt8_Rb_treeIN8osmscout5PixelESt4pairIKS1_St4listImSaImEEESt10_Select1stIS7_ESt4lessIS1_ESaIS7_EE22_M_emplace_hint_uniqueIIRKSt21piecewise_construct_tSt5tupleIIRS3_EESI_IIEEEEESt17_Rb_tree_iteratorIS7_ESt23_Rb_tree_const_iteratorIS7_EDpOT_@Base 0.1
 _ZNSt8_Rb_treeIN8osmscout5PixelESt4pairIKS1_St4listImSaImEEESt10_Select1stIS7_ESt4lessIS1_ESaIS7_EE22_M_emplace_hint_uniqueIJRKSt21piecewise_construct_tSt5tupleIJOS1_EESI_IJEEEEESt17_Rb_tree_iteratorIS7_ESt23_Rb_tree_const_iteratorIS7_EDpOT_@Base 0.1
 _ZNSt8_Rb_treeIN8osmscout5PixelESt4pairIKS1_St4listImSaImEEESt10_Select1stIS7_ESt4lessIS1_ESaIS7_EE22_M_emplace_hint_uniqueIJRKSt21piecewise_construct_tSt5tupleIJRS3_EESI_IJEEEEESt17_Rb_tree_iteratorIS7_ESt23_Rb_tree_const_iteratorIS7_EDpOT_@Base 0.1
 _ZNSt8_Rb_treeIN8osmscout5PixelESt4pairIKS1_St4listImSaImEEESt10_Select1stIS7_ESt4lessIS1_ESaIS7_EE24_M_get_insert_unique_posERS3_@Base 0.1
 _ZNSt8_Rb_treeIN8osmscout5PixelESt4pairIKS1_St4listImSaImEEESt10_Select1stIS7_ESt4lessIS1_ESaIS7_EE29_M_get_insert_hint_unique_posESt23_Rb_tree_const_iteratorIS7_ERS3_@Base 0.1
 _ZNSt8_Rb_treeIN8osmscout5PixelESt4pairIKS1_St4listImSaImEEESt10_Select1stIS7_ESt4lessIS1_ESaIS7_EE8_M_eraseEPSt13_Rb_tree_nodeIS7_E@Base 0.1
 _ZNSt8_Rb_treeIN8osmscout5PixelESt4pairIKS1_mESt10_Select1stIS4_ESt4lessIS1_ESaIS4_EE24_M_get_insert_unique_posERS3_@Base 0.1
 _ZNSt8_Rb_treeIN8osmscout5PixelESt4pairIKS1_mESt10_Select1stIS4_ESt4lessIS1_ESaIS4_EE29_M_get_insert_hint_unique_posESt23_Rb_tree_const_iteratorIS4_ERS3_@Base 0.1
 _ZNSt8_Rb_treeIN8osmscout5PixelESt4pairIKS1_mESt10_Select1stIS4_ESt4lessIS1_ESaIS4_EE8_M_eraseEPSt13_Rb_tree_nodeIS4_E@Base 0.1
 _ZNSt8_Rb_treeIPN8osmscout20RelAreaDataGenerator16MultipolygonPartES3_St9_IdentityIS3_ESt4lessIS3_ESaIS3_EE16_M_insert_uniqueIRKS3_EESt4pairISt17_Rb_tree_iteratorIS3_EbEOT_@Base 0.1
 _ZNSt8_Rb_treeIPN8osmscout20RelAreaDataGenerator16MultipolygonPartES3_St9_IdentityIS3_ESt4lessIS3_ESaIS3_EE4findERKS3_@Base 0.1
 _ZNSt8_Rb_treeIPN8osmscout20RelAreaDataGenerator16MultipolygonPartES3_St9_IdentityIS3_ESt4lessIS3_ESaIS3_EE8_M_eraseEPSt13_Rb_tree_nodeIS3_E@Base 0.1
 _ZNSt8_Rb_treeISsSt4pairIKSsN8osmscout22LocationIndexGenerator14RegionLocationEESt10_Select1stIS5_ESt4lessISsESaIS5_EE22_M_emplace_hint_uniqueIIRKSt21piecewise_construct_tSt5tupleIIRS1_EESG_IIEEEEESt17_Rb_tree_iteratorIS5_ESt23_Rb_tree_const_iteratorIS5_EDpOT_@Base 0.1
 _ZNSt8_Rb_treeISsSt4pairIKSsN8osmscout22LocationIndexGenerator14RegionLocationEESt10_Select1stIS5_ESt4lessISsESaIS5_EE22_M_emplace_hint_uniqueIJRKSt21piecewise_construct_tSt5tupleIJRS1_EESG_IJEEEEESt17_Rb_tree_iteratorIS5_ESt23_Rb_tree_const_iteratorIS5_EDpOT_@Base 0.1
 _ZNSt8_Rb_treeISsSt4pairIKSsN8osmscout22LocationIndexGenerator14RegionLocationEESt10_Select1stIS5_ESt4lessISsESaIS5_EE24_M_get_insert_unique_posERS1_@Base 0.1
 _ZNSt8_Rb_treeISsSt4pairIKSsN8osmscout22LocationIndexGenerator14RegionLocationEESt10_Select1stIS5_ESt4lessISsESaIS5_EE29_M_get_insert_hint_unique_posESt23_Rb_tree_const_iteratorIS5_ERS1_@Base 0.1
 _ZNSt8_Rb_treeISsSt4pairIKSsN8osmscout22LocationIndexGenerator14RegionLocationEESt10_Select1stIS5_ESt4lessISsESaIS5_EE4findERS1_@Base 0.1
 _ZNSt8_Rb_treeISsSt4pairIKSsN8osmscout22LocationIndexGenerator14RegionLocationEESt10_Select1stIS5_ESt4lessISsESaIS5_EE8_M_eraseEPSt13_Rb_tree_nodeIS5_E@Base 0.1
 _ZNSt8_Rb_treeISt10shared_ptrIN8osmscout8TypeInfoEES3_St9_IdentityIS3_ESt4lessIS3_ESaIS3_EE16_M_insert_uniqueIRKS3_EESt4pairISt17_Rb_tree_iteratorIS3_EbEOT_@Base 0.1
 _ZNSt8_Rb_treeISt10shared_ptrIN8osmscout8TypeInfoEES3_St9_IdentityIS3_ESt4lessIS3_ESaIS3_EE5eraseERKS3_@Base 0.1
 _ZNSt8_Rb_treeISt10shared_ptrIN8osmscout8TypeInfoEES3_St9_IdentityIS3_ESt4lessIS3_ESaIS3_EE7_M_copyEPKSt13_Rb_tree_nodeIS3_EPSB_@Base 0.1
 _ZNSt8_Rb_treeISt10shared_ptrIN8osmscout8TypeInfoEES3_St9_IdentityIS3_ESt4lessIS3_ESaIS3_EE8_M_eraseEPSt13_Rb_tree_nodeIS3_E@Base 0.1
 _ZNSt8_Rb_treeIlSt4pairIKlN8osmscout3RefINS2_11RawRelationEEEESt10_Select1stIS6_ESt4lessIlESaIS6_EE24_M_get_insert_unique_posERS1_@Base 0.1
 _ZNSt8_Rb_treeIlSt4pairIKlN8osmscout3RefINS2_11RawRelationEEEESt10_Select1stIS6_ESt4lessIlESaIS6_EE29_M_get_insert_hint_unique_posESt23_Rb_tree_const_iteratorIS6_ERS1_@Base 0.1
 _ZNSt8_Rb_treeIlSt4pairIKlN8osmscout3RefINS2_11RawRelationEEEESt10_Select1stIS6_ESt4lessIlESaIS6_EE8_M_eraseEPSt13_Rb_tree_nodeIS6_E@Base 0.1
 _ZNSt8_Rb_treeIlSt4pairIKlN8osmscout3RefINS2_15TurnRestrictionEEEESt10_Select1stIS6_ESt4lessIlESaIS6_EE15_M_insert_equalIS0_IlS5_EEESt17_Rb_tree_iteratorIS6_EOT_@Base 0.1
 _ZNSt8_Rb_treeIlSt4pairIKlN8osmscout3RefINS2_15TurnRestrictionEEEESt10_Select1stIS6_ESt4lessIlESaIS6_EE8_M_eraseEPSt13_Rb_tree_nodeIS6_E@Base 0.1
 _ZNSt8_Rb_treeIlSt4pairIKlmESt10_Select1stIS2_ESt4lessIlESaIS2_EE16_M_insert_uniqueIS0_IliEEES0_ISt17_Rb_tree_iteratorIS2_EbEOT_@Base 0.1
 _ZNSt8_Rb_treeIlSt4pairIKlmESt10_Select1stIS2_ESt4lessIlESaIS2_EE4findERS1_@Base 0.1
 _ZNSt8_Rb_treeIlSt4pairIKlmESt10_Select1stIS2_ESt4lessIlESaIS2_EE8_M_eraseEPSt13_Rb_tree_nodeIS2_E@Base 0.1
 _ZNSt8_Rb_treeIllSt9_IdentityIlESt4lessIlESaIlEE16_M_insert_uniqueIRKlEESt4pairISt17_Rb_tree_iteratorIlEbEOT_@Base 0.1
 _ZNSt8_Rb_treeIllSt9_IdentityIlESt4lessIlESaIlEE16_M_insert_uniqueIlEESt4pairISt17_Rb_tree_iteratorIlEbEOT_@Base 0.1
 _ZNSt8_Rb_treeIllSt9_IdentityIlESt4lessIlESaIlEE24_M_get_insert_unique_posERKl@Base 0.1
 _ZNSt8_Rb_treeIllSt9_IdentityIlESt4lessIlESaIlEE4findERKl@Base 0.1
 _ZNSt8_Rb_treeIllSt9_IdentityIlESt4lessIlESaIlEE8_M_eraseEPSt13_Rb_tree_nodeIlE@Base 0.1
 _ZNSt8_Rb_treeImSt4pairIKmN8osmscout3RefINS2_19WaterIndexGenerator5CoastEEEESt10_Select1stIS7_ESt4lessImESaIS7_EE16_M_insert_uniqueIS0_ImS6_EEES0_ISt17_Rb_tree_iteratorIS7_EbEOT_@Base 0.1
 _ZNSt8_Rb_treeImSt4pairIKmN8osmscout3RefINS2_19WaterIndexGenerator5CoastEEEESt10_Select1stIS7_ESt4lessImESaIS7_EE8_M_eraseEPSt13_Rb_tree_nodeIS7_E@Base 0.1
 _ZNSt8_Rb_treeImSt4pairIKmN8osmscout3RefINS2_9RouteNodeEEEESt10_Select1stIS6_ESt4lessImESaIS6_EE16_M_insert_uniqueIS0_ImS5_EEES0_ISt17_Rb_tree_iteratorIS6_EbEOT_@Base 0.1
 _ZNSt8_Rb_treeImSt4pairIKmN8osmscout3RefINS2_9RouteNodeEEEESt10_Select1stIS6_ESt4lessImESaIS6_EE8_M_eraseEPSt13_Rb_tree_nodeIS6_E@Base 0.1
 _ZNSt8_Rb_treeImSt4pairIKmSt4listIN8osmscout13ObjectFileRefESaIS4_EEESt10_Select1stIS7_ESt4lessImESaIS7_EE24_M_get_insert_unique_posERS1_@Base 0.1
 _ZNSt8_Rb_treeImSt4pairIKmSt4listIN8osmscout13ObjectFileRefESaIS4_EEESt10_Select1stIS7_ESt4lessImESaIS7_EE29_M_get_insert_hint_unique_posESt23_Rb_tree_const_iteratorIS7_ERS1_@Base 0.1
 _ZNSt8_Rb_treeImSt4pairIKmSt4listIN8osmscout13ObjectFileRefESaIS4_EEESt10_Select1stIS7_ESt4lessImESaIS7_EE8_M_eraseEPSt13_Rb_tree_nodeIS7_E@Base 0.1
 _ZNSt8_Rb_treeImSt4pairIKmSt4listIN8osmscout17SortDataGeneratorINS3_3WayEE9CellEntryESaIS7_EEESt10_Select1stISA_ESt4lessImESaISA_EE24_M_get_insert_unique_posERS1_@Base 0.1
 _ZNSt8_Rb_treeImSt4pairIKmSt4listIN8osmscout17SortDataGeneratorINS3_3WayEE9CellEntryESaIS7_EEESt10_Select1stISA_ESt4lessImESaISA_EE29_M_get_insert_hint_unique_posESt23_Rb_tree_const_iteratorISA_ERS1_@Base 0.1
 _ZNSt8_Rb_treeImSt4pairIKmSt4listIN8osmscout17SortDataGeneratorINS3_3WayEE9CellEntryESaIS7_EEESt10_Select1stISA_ESt4lessImESaISA_EE8_M_eraseEPSt13_Rb_tree_nodeISA_E@Base 0.1
 _ZNSt8_Rb_treeImSt4pairIKmSt4listIN8osmscout17SortDataGeneratorINS3_4AreaEE9CellEntryESaIS7_EEESt10_Select1stISA_ESt4lessImESaISA_EE24_M_get_insert_unique_posERS1_@Base 0.1
 _ZNSt8_Rb_treeImSt4pairIKmSt4listIN8osmscout17SortDataGeneratorINS3_4AreaEE9CellEntryESaIS7_EEESt10_Select1stISA_ESt4lessImESaISA_EE29_M_get_insert_hint_unique_posESt23_Rb_tree_const_iteratorISA_ERS1_@Base 0.1
 _ZNSt8_Rb_treeImSt4pairIKmSt4listIN8osmscout17SortDataGeneratorINS3_4AreaEE9CellEntryESaIS7_EEESt10_Select1stISA_ESt4lessImESaISA_EE8_M_eraseEPSt13_Rb_tree_nodeISA_E@Base 0.1
 _ZNSt8_Rb_treeImSt4pairIKmSt4listIN8osmscout17SortDataGeneratorINS3_4NodeEE9CellEntryESaIS7_EEESt10_Select1stISA_ESt4lessImESaISA_EE24_M_get_insert_unique_posERS1_@Base 0.1
 _ZNSt8_Rb_treeImSt4pairIKmSt4listIN8osmscout17SortDataGeneratorINS3_4NodeEE9CellEntryESaIS7_EEESt10_Select1stISA_ESt4lessImESaISA_EE29_M_get_insert_hint_unique_posESt23_Rb_tree_const_iteratorISA_ERS1_@Base 0.1
 _ZNSt8_Rb_treeImSt4pairIKmSt4listIN8osmscout17SortDataGeneratorINS3_4NodeEE9CellEntryESaIS7_EEESt10_Select1stISA_ESt4lessImESaISA_EE8_M_eraseEPSt13_Rb_tree_nodeISA_E@Base 0.1
 _ZNSt8_Rb_treeImSt4pairIKmSt4listIN8osmscout18RouteDataGenerator13PendingOffsetESaIS5_EEESt10_Select1stIS8_ESt4lessImESaIS8_EE24_M_get_insert_unique_posERS1_@Base 0.1
 _ZNSt8_Rb_treeImSt4pairIKmSt4listIN8osmscout18RouteDataGenerator13PendingOffsetESaIS5_EEESt10_Select1stIS8_ESt4lessImESaIS8_EE29_M_get_insert_hint_unique_posESt23_Rb_tree_const_iteratorIS8_ERS1_@Base 0.1
 _ZNSt8_Rb_treeImSt4pairIKmSt4listIN8osmscout18RouteDataGenerator13PendingOffsetESaIS5_EEESt10_Select1stIS8_ESt4lessImESaIS8_EE8_M_eraseEPSt13_Rb_tree_nodeIS8_E@Base 0.1
 _ZNSt8_Rb_treeImSt4pairIKmSt4listIN8osmscout3RefINS3_3WayEEESaIS6_EEESt10_Select1stIS9_ESt4lessImESaIS9_EE24_M_get_insert_unique_posERS1_@Base 0.1
 _ZNSt8_Rb_treeImSt4pairIKmSt4listIN8osmscout3RefINS3_3WayEEESaIS6_EEESt10_Select1stIS9_ESt4lessImESaIS9_EE29_M_get_insert_hint_unique_posESt23_Rb_tree_const_iteratorIS9_ERS1_@Base 0.1
 _ZNSt8_Rb_treeImSt4pairIKmSt4listIN8osmscout3RefINS3_3WayEEESaIS6_EEESt10_Select1stIS9_ESt4lessImESaIS9_EE4findERS1_@Base 0.1
 _ZNSt8_Rb_treeImSt4pairIKmSt4listIN8osmscout3RefINS3_3WayEEESaIS6_EEESt10_Select1stIS9_ESt4lessImESaIS9_EE8_M_eraseEPSt13_Rb_tree_nodeIS9_E@Base 0.1
 _ZNSt8_Rb_treeImSt4pairIKmSt4listIPN8osmscout20RelAreaDataGenerator16MultipolygonPartESaIS6_EEESt10_Select1stIS9_ESt4lessImESaIS9_EE24_M_get_insert_unique_posERS1_@Base 0.1
 _ZNSt8_Rb_treeImSt4pairIKmSt4listIPN8osmscout20RelAreaDataGenerator16MultipolygonPartESaIS6_EEESt10_Select1stIS9_ESt4lessImESaIS9_EE29_M_get_insert_hint_unique_posESt23_Rb_tree_const_iteratorIS9_ERS1_@Base 0.1
 _ZNSt8_Rb_treeImSt4pairIKmSt4listIPN8osmscout20RelAreaDataGenerator16MultipolygonPartESaIS6_EEESt10_Select1stIS9_ESt4lessImESaIS9_EE8_M_eraseEPSt13_Rb_tree_nodeIS9_E@Base 0.1
 _ZNSt8_Rb_treeImSt4pairIKmSt6vectorIN8osmscout18RouteDataGenerator19TurnRestrictionDataESaIS5_EEESt10_Select1stIS8_ESt4lessImESaIS8_EE24_M_get_insert_unique_posERS1_@Base 0.1
 _ZNSt8_Rb_treeImSt4pairIKmSt6vectorIN8osmscout18RouteDataGenerator19TurnRestrictionDataESaIS5_EEESt10_Select1stIS8_ESt4lessImESaIS8_EE29_M_get_insert_hint_unique_posESt23_Rb_tree_const_iteratorIS8_ERS1_@Base 0.1
 _ZNSt8_Rb_treeImSt4pairIKmSt6vectorIN8osmscout18RouteDataGenerator19TurnRestrictionDataESaIS5_EEESt10_Select1stIS8_ESt4lessImESaIS8_EE8_M_eraseEPSt13_Rb_tree_nodeIS8_E@Base 0.1
 _ZNSt8_Rb_treeImmSt9_IdentityImESt4lessImESaImEE16_M_insert_uniqueIRKmEESt4pairISt17_Rb_tree_iteratorImEbEOT_@Base 0.1
 _ZNSt8_Rb_treeImmSt9_IdentityImESt4lessImESaImEE16_M_insert_uniqueImEESt4pairISt17_Rb_tree_iteratorImEbEOT_@Base 0.1
 _ZNSt8_Rb_treeImmSt9_IdentityImESt4lessImESaImEE4findERKm@Base 0.1
 _ZNSt8_Rb_treeImmSt9_IdentityImESt4lessImESaImEE8_M_eraseEPSt13_Rb_tree_nodeImE@Base 0.1
 _ZNSt8__detail9_Map_baseImSt4pairIKmN8osmscout3RefINS3_3WayEEEESaIS7_ENS_10_Select1stESt8equal_toImESt4hashImENS_18_Mod_range_hashingENS_20_Default_ranged_hashENS_20_Prime_rehash_policyENS_17_Hashtable_traitsILb0ELb0ELb1EEELb1EEixERS2_@Base 0.1
 _ZNSt8__detail9_Map_baseImSt4pairIKmN8osmscout3RefINS3_4AreaEEEESaIS7_ENS_10_Select1stESt8equal_toImESt4hashImENS_18_Mod_range_hashingENS_20_Default_ranged_hashENS_20_Prime_rehash_policyENS_17_Hashtable_traitsILb0ELb0ELb1EEELb1EEixERS2_@Base 0.1
 _ZNSt8__detail9_Map_baseImSt4pairIKmSt4listIN8osmscout3RefINS4_4AreaEEESaIS7_EEESaISA_ENS_10_Select1stESt8equal_toImESt4hashImENS_18_Mod_range_hashingENS_20_Default_ranged_hashENS_20_Prime_rehash_policyENS_17_Hashtable_traitsILb0ELb0ELb1EEELb1EEixERS2_@Base 0.1
 _ZNSt8__detail9_Map_baseItSt4pairIKtSsESaIS3_ENS_10_Select1stESt8equal_toItESt4hashItENS_18_Mod_range_hashingENS_20_Default_ranged_hashENS_20_Prime_rehash_policyENS_17_Hashtable_traitsILb0ELb0ELb1EEELb1EEixERS2_@Base 0.1
 _ZStplIcSt11char_traitsIcESaIcEESbIT_T0_T1_EOS6_S7_@Base 0.1
 _ZTIN3PBF10DenseNodesE@Base 0.1
 _ZTIN3PBF10HeaderBBoxE@Base 0.1
 _ZTIN3PBF11BlockHeaderE@Base 0.1
 _ZTIN3PBF11HeaderBlockE@Base 0.1
 _ZTIN3PBF11StringTableE@Base 0.1
 _ZTIN3PBF14PrimitiveBlockE@Base 0.1
 _ZTIN3PBF14PrimitiveGroupE@Base 0.1
 _ZTIN3PBF3WayE@Base 0.1
 _ZTIN3PBF4BlobE@Base 0.1
 _ZTIN3PBF4InfoE@Base 0.1
 _ZTIN3PBF4NodeE@Base 0.1
 _ZTIN3PBF8RelationE@Base 0.1
 _ZTIN3PBF9ChangeSetE@Base 0.1
 _ZTIN3PBF9DenseInfoE@Base 0.1
 _ZTIN8osmscout10Preprocess8CallbackE@Base 0.1
 _ZTIN8osmscout10PreprocessE@Base 0.1
 _ZTIN8osmscout12ImportModuleE@Base 0.1
 _ZTIN8osmscout12NumericIndexIlEE@Base 0.1
 _ZTIN8osmscout12PreprocessorE@Base 0.1
 _ZTIN8osmscout12ReferencableE@Base 0.1
 _ZTIN8osmscout13PreprocessOSME@Base 0.1
 _ZTIN8osmscout13PreprocessPBFE@Base 0.1
 _ZTIN8osmscout14SilentProgressE@Base 0.1
 _ZTIN8osmscout15IndexedDataFileIlNS_11RawRelationEEE@Base 0.1
 _ZTIN8osmscout15IndexedDataFileIlNS_6RawWayEEE@Base 0.1
 _ZTIN8osmscout17NodeDataGeneratorE@Base 0.1
 _ZTIN8osmscout17SortDataGeneratorINS_3WayEE16ProcessingFilterE@Base 0.1
 _ZTIN8osmscout17SortDataGeneratorINS_3WayEEE@Base 0.1
 _ZTIN8osmscout17SortDataGeneratorINS_4AreaEE16ProcessingFilterE@Base 0.1
 _ZTIN8osmscout17SortDataGeneratorINS_4AreaEEE@Base 0.1
 _ZTIN8osmscout17SortDataGeneratorINS_4NodeEE16ProcessingFilterE@Base 0.1
 _ZTIN8osmscout17SortDataGeneratorINS_4NodeEEE@Base 0.1
 _ZTIN8osmscout17TypeDataGeneratorE@Base 0.1
 _ZTIN8osmscout18RouteDataGeneratorE@Base 0.1
 _ZTIN8osmscout19MergeAreasGeneratorE@Base 0.1
 _ZTIN8osmscout19WaterIndexGeneratorE@Base 0.1
 _ZTIN8osmscout19WayWayDataGeneratorE@Base 0.1
 _ZTIN8osmscout20PreprocessorCallbackE@Base 0.1
 _ZTIN8osmscout20RawWayIndexGeneratorE@Base 0.1
 _ZTIN8osmscout20RelAreaDataGeneratorE@Base 0.1
 _ZTIN8osmscout20SortWayDataGeneratorE@Base 0.1
 _ZTIN8osmscout20WayAreaDataGeneratorE@Base 0.1
 _ZTIN8osmscout21AreaWayIndexGeneratorE@Base 0.1
 _ZTIN8osmscout21NumericIndexGeneratorIlNS_11RawRelationEEE@Base 0.1
 _ZTIN8osmscout21NumericIndexGeneratorIlNS_6RawWayEEE@Base 0.1
 _ZTIN8osmscout21NumericIndexGeneratorIlNS_7RawNodeEEE@Base 0.1
 _ZTIN8osmscout21NumericIndexGeneratorImNS_12IntersectionEEE@Base 0.1
 _ZTIN8osmscout21NumericIndexGeneratorImNS_9RouteNodeEEE@Base 0.1
 _ZTIN8osmscout21RawNodeIndexGeneratorE@Base 0.1
 _ZTIN8osmscout21RawWayIndexedDataFileE@Base 0.1
 _ZTIN8osmscout21SortAreaDataGeneratorE@Base 0.1
 _ZTIN8osmscout21SortNodeDataGeneratorE@Base 0.1
 _ZTIN8osmscout22AreaAreaIndexGeneratorE@Base 0.1
 _ZTIN8osmscout22AreaNodeIndexGeneratorE@Base 0.1
 _ZTIN8osmscout22LocationIndexGeneratorE@Base 0.1
 _ZTIN8osmscout22MergeAreaDataGeneratorE@Base 0.1
 _ZTIN8osmscout25RawRelationIndexGeneratorE@Base 0.1
 _ZTIN8osmscout26RawRelationIndexedDataFileE@Base 0.1
 _ZTIN8osmscout26WayLocationProcessorFilterE@Base 0.1
 _ZTIN8osmscout27AreaLocationProcessorFilterE@Base 0.1
 _ZTIN8osmscout27NodeLocationProcessorFilterE@Base 0.1
 _ZTIN8osmscout27OptimizeAreaWayIdsGeneratorE@Base 0.1
 _ZTIN8osmscout28OptimizeWaysLowZoomGeneratorE@Base 0.1
 _ZTIN8osmscout29OptimizeAreasLowZoomGeneratorE@Base 0.1
 _ZTIN8osmscout31WayNodeReductionProcessorFilterE@Base 0.1
 _ZTIN8osmscout32AreaNodeReductionProcessorFilterE@Base 0.1
 _ZTIN8osmscout7RawNodeE@Base 0.1
 _ZTIN8osmscout8DataFileINS_11RawRelationEEE@Base 0.1
 _ZTIN8osmscout8DataFileINS_6RawWayEEE@Base 0.1
 _ZTISt11_Mutex_baseILN9__gnu_cxx12_Lock_policyE2EE@Base 0.1
 _ZTISt15_Sp_counted_ptrIPN8osmscout10TypeConfigELN9__gnu_cxx12_Lock_policyE2EE@Base 0.1
 _ZTISt16_Sp_counted_baseILN9__gnu_cxx12_Lock_policyE2EE@Base 0.1
 _ZTSN3PBF10DenseNodesE@Base 0.1
 _ZTSN3PBF10HeaderBBoxE@Base 0.1
 _ZTSN3PBF11BlockHeaderE@Base 0.1
 _ZTSN3PBF11HeaderBlockE@Base 0.1
 _ZTSN3PBF11StringTableE@Base 0.1
 _ZTSN3PBF14PrimitiveBlockE@Base 0.1
 _ZTSN3PBF14PrimitiveGroupE@Base 0.1
 _ZTSN3PBF3WayE@Base 0.1
 _ZTSN3PBF4BlobE@Base 0.1
 _ZTSN3PBF4InfoE@Base 0.1
 _ZTSN3PBF4NodeE@Base 0.1
 _ZTSN3PBF8RelationE@Base 0.1
 _ZTSN3PBF9ChangeSetE@Base 0.1
 _ZTSN3PBF9DenseInfoE@Base 0.1
 _ZTSN8osmscout10Preprocess8CallbackE@Base 0.1
 _ZTSN8osmscout10PreprocessE@Base 0.1
 _ZTSN8osmscout12ImportModuleE@Base 0.1
 _ZTSN8osmscout12NumericIndexIlEE@Base 0.1
 _ZTSN8osmscout12PreprocessorE@Base 0.1
 _ZTSN8osmscout12ReferencableE@Base 0.1
 _ZTSN8osmscout13PreprocessOSME@Base 0.1
 _ZTSN8osmscout13PreprocessPBFE@Base 0.1
 _ZTSN8osmscout14SilentProgressE@Base 0.1
 _ZTSN8osmscout15IndexedDataFileIlNS_11RawRelationEEE@Base 0.1
 _ZTSN8osmscout15IndexedDataFileIlNS_6RawWayEEE@Base 0.1
 _ZTSN8osmscout17NodeDataGeneratorE@Base 0.1
 _ZTSN8osmscout17SortDataGeneratorINS_3WayEE16ProcessingFilterE@Base 0.1
 _ZTSN8osmscout17SortDataGeneratorINS_3WayEEE@Base 0.1
 _ZTSN8osmscout17SortDataGeneratorINS_4AreaEE16ProcessingFilterE@Base 0.1
 _ZTSN8osmscout17SortDataGeneratorINS_4AreaEEE@Base 0.1
 _ZTSN8osmscout17SortDataGeneratorINS_4NodeEE16ProcessingFilterE@Base 0.1
 _ZTSN8osmscout17SortDataGeneratorINS_4NodeEEE@Base 0.1
 _ZTSN8osmscout17TypeDataGeneratorE@Base 0.1
 _ZTSN8osmscout18RouteDataGeneratorE@Base 0.1
 _ZTSN8osmscout19MergeAreasGeneratorE@Base 0.1
 _ZTSN8osmscout19WaterIndexGeneratorE@Base 0.1
 _ZTSN8osmscout19WayWayDataGeneratorE@Base 0.1
 _ZTSN8osmscout20PreprocessorCallbackE@Base 0.1
 _ZTSN8osmscout20RawWayIndexGeneratorE@Base 0.1
 _ZTSN8osmscout20RelAreaDataGeneratorE@Base 0.1
 _ZTSN8osmscout20SortWayDataGeneratorE@Base 0.1
 _ZTSN8osmscout20WayAreaDataGeneratorE@Base 0.1
 _ZTSN8osmscout21AreaWayIndexGeneratorE@Base 0.1
 _ZTSN8osmscout21NumericIndexGeneratorIlNS_11RawRelationEEE@Base 0.1
 _ZTSN8osmscout21NumericIndexGeneratorIlNS_6RawWayEEE@Base 0.1
 _ZTSN8osmscout21NumericIndexGeneratorIlNS_7RawNodeEEE@Base 0.1
 _ZTSN8osmscout21NumericIndexGeneratorImNS_12IntersectionEEE@Base 0.1
 _ZTSN8osmscout21NumericIndexGeneratorImNS_9RouteNodeEEE@Base 0.1
 _ZTSN8osmscout21RawNodeIndexGeneratorE@Base 0.1
 _ZTSN8osmscout21RawWayIndexedDataFileE@Base 0.1
 _ZTSN8osmscout21SortAreaDataGeneratorE@Base 0.1
 _ZTSN8osmscout21SortNodeDataGeneratorE@Base 0.1
 _ZTSN8osmscout22AreaAreaIndexGeneratorE@Base 0.1
 _ZTSN8osmscout22AreaNodeIndexGeneratorE@Base 0.1
 _ZTSN8osmscout22LocationIndexGeneratorE@Base 0.1
 _ZTSN8osmscout22MergeAreaDataGeneratorE@Base 0.1
 _ZTSN8osmscout25RawRelationIndexGeneratorE@Base 0.1
 _ZTSN8osmscout26RawRelationIndexedDataFileE@Base 0.1
 _ZTSN8osmscout26WayLocationProcessorFilterE@Base 0.1
 _ZTSN8osmscout27AreaLocationProcessorFilterE@Base 0.1
 _ZTSN8osmscout27NodeLocationProcessorFilterE@Base 0.1
 _ZTSN8osmscout27OptimizeAreaWayIdsGeneratorE@Base 0.1
 _ZTSN8osmscout28OptimizeWaysLowZoomGeneratorE@Base 0.1
 _ZTSN8osmscout29OptimizeAreasLowZoomGeneratorE@Base 0.1
 _ZTSN8osmscout31WayNodeReductionProcessorFilterE@Base 0.1
 _ZTSN8osmscout32AreaNodeReductionProcessorFilterE@Base 0.1
 _ZTSN8osmscout7RawNodeE@Base 0.1
 _ZTSN8osmscout8DataFileINS_11RawRelationEEE@Base 0.1
 _ZTSN8osmscout8DataFileINS_6RawWayEEE@Base 0.1
 _ZTSSt11_Mutex_baseILN9__gnu_cxx12_Lock_policyE2EE@Base 0.1
 _ZTSSt15_Sp_counted_ptrIPN8osmscout10TypeConfigELN9__gnu_cxx12_Lock_policyE2EE@Base 0.1
 _ZTSSt16_Sp_counted_baseILN9__gnu_cxx12_Lock_policyE2EE@Base 0.1
 _ZTVN3PBF10DenseNodesE@Base 0.1
 _ZTVN3PBF10HeaderBBoxE@Base 0.1
 _ZTVN3PBF11BlockHeaderE@Base 0.1
 _ZTVN3PBF11HeaderBlockE@Base 0.1
 _ZTVN3PBF11StringTableE@Base 0.1
 _ZTVN3PBF14PrimitiveBlockE@Base 0.1
 _ZTVN3PBF14PrimitiveGroupE@Base 0.1
 _ZTVN3PBF3WayE@Base 0.1
 _ZTVN3PBF4BlobE@Base 0.1
 _ZTVN3PBF4InfoE@Base 0.1
 _ZTVN3PBF4NodeE@Base 0.1
 _ZTVN3PBF8RelationE@Base 0.1
 _ZTVN3PBF9ChangeSetE@Base 0.1
 _ZTVN3PBF9DenseInfoE@Base 0.1
 _ZTVN8osmscout10Preprocess8CallbackE@Base 0.1
 _ZTVN8osmscout10PreprocessE@Base 0.1
 _ZTVN8osmscout12ImportModuleE@Base 0.1
 _ZTVN8osmscout12NumericIndexIlEE@Base 0.1
 _ZTVN8osmscout12PreprocessorE@Base 0.1
 _ZTVN8osmscout13PreprocessOSME@Base 0.1
 _ZTVN8osmscout13PreprocessPBFE@Base 0.1
 _ZTVN8osmscout14SilentProgressE@Base 0.1
 _ZTVN8osmscout15IndexedDataFileIlNS_11RawRelationEEE@Base 0.1
 _ZTVN8osmscout15IndexedDataFileIlNS_6RawWayEEE@Base 0.1
 _ZTVN8osmscout17NodeDataGeneratorE@Base 0.1
 _ZTVN8osmscout17SortDataGeneratorINS_3WayEE16ProcessingFilterE@Base 0.1
 _ZTVN8osmscout17SortDataGeneratorINS_3WayEEE@Base 0.1
 _ZTVN8osmscout17SortDataGeneratorINS_4AreaEE16ProcessingFilterE@Base 0.1
 _ZTVN8osmscout17SortDataGeneratorINS_4AreaEEE@Base 0.1
 _ZTVN8osmscout17SortDataGeneratorINS_4NodeEE16ProcessingFilterE@Base 0.1
 _ZTVN8osmscout17SortDataGeneratorINS_4NodeEEE@Base 0.1
 _ZTVN8osmscout17TypeDataGeneratorE@Base 0.1
 _ZTVN8osmscout18RouteDataGeneratorE@Base 0.1
 _ZTVN8osmscout19MergeAreasGeneratorE@Base 0.1
 _ZTVN8osmscout19WaterIndexGeneratorE@Base 0.1
 _ZTVN8osmscout19WayWayDataGeneratorE@Base 0.1
 _ZTVN8osmscout20PreprocessorCallbackE@Base 0.1
 _ZTVN8osmscout20RawWayIndexGeneratorE@Base 0.1
 _ZTVN8osmscout20RelAreaDataGeneratorE@Base 0.1
 _ZTVN8osmscout20SortWayDataGeneratorE@Base 0.1
 _ZTVN8osmscout20WayAreaDataGeneratorE@Base 0.1
 _ZTVN8osmscout21AreaWayIndexGeneratorE@Base 0.1
 _ZTVN8osmscout21NumericIndexGeneratorIlNS_11RawRelationEEE@Base 0.1
 _ZTVN8osmscout21NumericIndexGeneratorIlNS_6RawWayEEE@Base 0.1
 _ZTVN8osmscout21NumericIndexGeneratorIlNS_7RawNodeEEE@Base 0.1
 _ZTVN8osmscout21NumericIndexGeneratorImNS_12IntersectionEEE@Base 0.1
 _ZTVN8osmscout21NumericIndexGeneratorImNS_9RouteNodeEEE@Base 0.1
 _ZTVN8osmscout21RawNodeIndexGeneratorE@Base 0.1
 _ZTVN8osmscout21RawWayIndexedDataFileE@Base 0.1
 _ZTVN8osmscout21SortAreaDataGeneratorE@Base 0.1
 _ZTVN8osmscout21SortNodeDataGeneratorE@Base 0.1
 _ZTVN8osmscout22AreaAreaIndexGeneratorE@Base 0.1
 _ZTVN8osmscout22AreaNodeIndexGeneratorE@Base 0.1
 _ZTVN8osmscout22LocationIndexGeneratorE@Base 0.1
 _ZTVN8osmscout22MergeAreaDataGeneratorE@Base 0.1
 _ZTVN8osmscout25RawRelationIndexGeneratorE@Base 0.1
 _ZTVN8osmscout26RawRelationIndexedDataFileE@Base 0.1
 _ZTVN8osmscout26WayLocationProcessorFilterE@Base 0.1
 _ZTVN8osmscout27AreaLocationProcessorFilterE@Base 0.1
 _ZTVN8osmscout27NodeLocationProcessorFilterE@Base 0.1
 _ZTVN8osmscout27OptimizeAreaWayIdsGeneratorE@Base 0.1
 _ZTVN8osmscout28OptimizeWaysLowZoomGeneratorE@Base 0.1
 _ZTVN8osmscout29OptimizeAreasLowZoomGeneratorE@Base 0.1
 _ZTVN8osmscout31WayNodeReductionProcessorFilterE@Base 0.1
 _ZTVN8osmscout32AreaNodeReductionProcessorFilterE@Base 0.1
 _ZTVN8osmscout7RawNodeE@Base 0.1
 _ZTVN8osmscout8DataFileINS_11RawRelationEEE@Base 0.1
 _ZTVN8osmscout8DataFileINS_6RawWayEEE@Base 0.1
 _ZTVSt15_Sp_counted_ptrIPN8osmscout10TypeConfigELN9__gnu_cxx12_Lock_policyE2EE@Base 0.1
 _ZTVSt16_Sp_counted_baseILN9__gnu_cxx12_Lock_policyE2EE@Base 0.1
